(lp0
(lp1
I30
aI0
aF1.0
aF1.0
aI30
aI18
aF1.0
aI30
aI30
aI0
aI29
aI2
aI1
aI0
aI30
aI30
aI34
aa(lp2
I30
aI0
aF1.0
aF1.0
aI30
aI18
aF1.0
aI30
aI30
aI0
aI29
aI2
aI0
aI0
aI30
aI30
aI34
aa(lp3
I30
aI0
aF1.0
aF1.0
aI30
aI18
aF1.0
aI30
aI30
aI0
aI29
aI2
aI1
aI0
aI30
aI30
aI34
aa(lp4
I30
aI0
aF1.0
aF1.0
aI30
aI18
aF1.0
aI30
aI30
aI0
aI29
aI2
aI0
aI0
aI30
aI30
aI34
aa(lp5
I30
aI0
aF1.0
aF1.0
aI30
aI17
aF1.0
aI30
aI30
aI0
aI28
aI2
aI0
aI0
aI30
aI29
aI33
aa(lp6
I30
aI0
aF1.0
aF1.0
aI30
aI17
aF1.0
aI30
aI30
aI0
aI28
aI2
aI1
aI0
aI30
aI29
aI33
aa(lp7
I30
aI0
aF1.0
aF1.0
aI30
aI17
aF1.0
aI30
aI30
aI0
aI28
aI2
aI2
aI0
aI30
aI29
aI33
aa(lp8
I30
aI0
aF1.0
aF1.0
aI30
aI17
aF1.0
aI30
aI30
aI0
aI28
aI2
aI2
aI0
aI30
aI29
aI33
aa(lp9
I30
aI0
aF1.0
aF1.0
aI30
aI17
aF1.0
aI30
aI30
aI0
aI28
aI2
aI3
aI0
aI30
aI29
aI33
aa(lp10
I30
aI0
aF1.0
aF1.0
aI30
aI17
aF1.0
aI30
aI30
aI0
aI28
aI2
aI4
aI0
aI30
aI29
aI33
aa(lp11
I30
aI0
aF1.0
aF1.0
aI30
aI16
aF1.0
aI30
aI30
aI0
aI27
aI2
aI4
aI0
aI30
aI28
aI32
aa(lp12
I30
aI0
aF1.0
aF1.0
aI30
aI15
aF1.0
aI30
aI30
aI0
aI26
aI2
aI4
aI0
aI30
aI27
aI31
aa(lp13
I30
aI0
aF1.0
aF1.0
aI30
aI15
aF1.0
aI30
aI30
aI0
aI26
aI2
aI5
aI0
aI30
aI27
aI31
aa(lp14
I30
aI0
aF1.0
aF1.0
aI30
aI14
aF1.0
aI30
aI30
aI0
aI25
aI2
aI5
aI0
aI30
aI26
aI30
aa(lp15
I30
aI0
aF1.0
aF1.0
aI30
aI13
aF1.0
aI30
aI30
aI0
aI24
aI2
aI5
aI0
aI30
aI25
aI29
aa(lp16
I30
aI0
aF1.0
aF1.0
aI30
aI12
aF1.0
aI30
aI30
aI0
aI23
aI2
aI5
aI0
aI30
aI24
aI28
aa(lp17
I30
aI0
aF1.0
aF1.0
aI30
aI11
aF1.0
aI30
aI30
aI0
aI22
aI2
aI5
aI0
aI30
aI23
aI27
aa(lp18
I30
aI0
aF1.0
aF1.0
aI30
aI11
aF1.0
aI30
aI30
aI0
aI22
aI2
aI6
aI0
aI30
aI23
aI27
aa(lp19
I30
aI0
aF1.0
aF1.0
aI30
aI10
aF1.0
aI30
aI30
aI0
aI21
aI2
aI6
aI0
aI30
aI22
aI26
aa(lp20
I30
aI0
aF1.0
aF1.0
aI30
aI11
aF1.0
aI30
aI30
aI0
aI20
aI2
aI8
aI0
aI30
aI21
aI25
aa(lp21
I30
aI0
aF1.0
aF1.0
aI30
aI12
aF1.0
aI30
aI30
aI0
aI19
aI2
aI10
aI0
aI30
aI20
aI24
aa(lp22
I30
aI0
aF1.0
aF1.0
aI30
aI12
aF1.0
aI30
aI30
aI0
aI19
aI2
aI11
aI0
aI30
aI20
aI24
aa(lp23
I30
aI0
aF1.0
aF1.0
aI30
aI13
aF1.0
aI30
aI30
aI0
aI18
aI2
aI9
aI0
aI30
aI19
aI23
aa(lp24
I30
aI1
aF1.0
aF1.0
aI30
aI14
aF1.0
aI30
aI30
aI0
aI17
aI2
aI7
aI17
aI30
aI18
aI22
aa(lp25
I30
aI1
aF1.0
aF1.0
aI30
aI15
aF1.0
aI30
aI30
aI0
aI16
aI2
aI5
aI16
aI30
aI17
aI21
aa(lp26
I30
aI1
aF1.0
aF1.0
aI30
aI16
aF1.0
aI30
aI30
aI0
aI15
aI2
aI5
aI15
aI30
aI16
aI20
aa(lp27
I30
aI1
aF1.0
aF1.0
aI30
aI16
aF1.0
aI30
aI30
aI0
aI15
aI2
aI6
aI15
aI30
aI16
aI20
aa(lp28
I30
aI1
aF1.0
aF1.0
aI30
aI17
aF1.0
aI30
aI30
aI0
aI14
aI2
aI6
aI14
aI30
aI15
aI19
aa(lp29
I30
aI1
aF1.0
aF1.0
aI30
aI18
aF1.0
aI30
aI30
aI0
aI13
aI2
aI6
aI13
aI30
aI14
aI18
aa(lp30
I29
aI1
aF1.0
aF1.0
aI30
aI17
aF1.0
aI30
aI30
aI-1
aI12
aI2
aI6
aI12
aI30
aI13
aI17
aa(lp31
I29
aI1
aF1.0
aF1.0
aI30
aI17
aF1.0
aI30
aI30
aI-1
aI12
aI2
aI7
aI12
aI30
aI13
aI17
aa(lp32
I29
aI1
aF1.0
aF1.0
aI30
aI17
aF1.0
aI30
aI30
aI-1
aI12
aI2
aI8
aI13
aI30
aI13
aI17
aa(lp33
I29
aI1
aF1.0
aF1.0
aI30
aI17
aF1.0
aI30
aI30
aI-1
aI12
aI2
aI9
aI12
aI30
aI13
aI17
aa(lp34
I29
aI1
aF1.0
aF1.0
aI30
aI17
aF1.0
aI30
aI30
aI-1
aI12
aI2
aI10
aI13
aI30
aI13
aI17
aa(lp35
I28
aI1
aF1.0
aF1.0
aI30
aI16
aF1.0
aI30
aI30
aI-2
aI11
aI2
aI10
aI11
aI30
aI12
aI16
aa(lp36
I28
aI1
aF1.0
aF1.0
aI30
aI15
aF1.0
aI30
aI30
aI-2
aI12
aI2
aI12
aI12
aI30
aI13
aI17
aa(lp37
I28
aI1
aF1.0
aF1.0
aI30
aI16
aF1.0
aI30
aI30
aI-2
aI11
aI2
aI12
aI10
aI30
aI12
aI16
aa(lp38
I28
aI1
aF1.0
aF1.0
aI30
aI17
aF1.0
aI30
aI30
aI-2
aI10
aI2
aI12
aI10
aI30
aI11
aI15
aa(lp39
I28
aI1
aF1.0
aF1.0
aI30
aI16
aF1.0
aI30
aI30
aI-2
aI9
aI2
aI12
aI10
aI30
aI10
aI14
aa(lp40
I27
aI1
aF1.0
aF1.0
aI30
aI17
aF1.0
aI30
aI30
aI-3
aI10
aI2
aI12
aI12
aI30
aI9
aI15
aa(lp41
I26
aI1
aF1.0
aF1.0
aI30
aI7
aF1.0
aI30
aI30
aI-4
aI9
aI2
aI12
aI14
aI30
aI8
aI16
aa(lp42
I26
aI0
aF1.0
aF1.0
aI30
aI8
aF1.0
aI30
aI30
aI-4
aI8
aI2
aI14
aI0
aI30
aI7
aI15
aa(lp43
I26
aI0
aF1.0
aF1.0
aI30
aI9
aF1.0
aI30
aI30
aI-4
aI7
aI2
aI16
aI0
aI30
aI6
aI14
aa(lp44
I26
aI0
aF1.0
aF1.0
aI30
aI10
aF1.0
aI30
aI30
aI-4
aI6
aI2
aI17
aI0
aI30
aI5
aI13
aa(lp45
I26
aI0
aF1.0
aF1.0
aI30
aI11
aF1.0
aI30
aI30
aI-4
aI5
aI1
aI18
aI0
aI30
aI4
aI12
aa(lp46
I26
aI0
aF1.0
aF1.0
aI30
aI11
aF1.0
aI30
aI30
aI-4
aI5
aI1
aI18
aI0
aI30
aI4
aI12
aa(lp47
I26
aI0
aF1.0
aF1.0
aI30
aI11
aF1.0
aI30
aI30
aI-4
aI5
aI1
aI17
aI0
aI30
aI4
aI12
aa(lp48
I26
aI0
aF1.0
aF1.0
aI30
aI11
aF1.0
aI30
aI30
aI-4
aI5
aI1
aI16
aI0
aI30
aI4
aI12
aa(lp49
I26
aI0
aF1.0
aF1.0
aI30
aI12
aF1.0
aI30
aI30
aI-4
aI4
aI1
aI14
aI0
aI30
aI3
aI11
aa(lp50
I26
aI0
aF1.0
aF1.0
aI30
aI11
aF1.0
aI30
aI30
aI-4
aI3
aI1
aI12
aI0
aI30
aI4
aI10
aa(lp51
I26
aI0
aF1.0
aF1.0
aI30
aI12
aF1.0
aI30
aI30
aI-4
aI2
aI1
aI12
aI0
aI30
aI3
aI9
aa(lp52
I26
aI0
aF1.0
aF1.0
aI30
aI13
aF1.0
aI30
aI30
aI-4
aI1
aI1
aI12
aI0
aI30
aI2
aI8
aa(lp53
I26
aI0
aF1.0
aF1.0
aI30
aI14
aF1.0
aI30
aI30
aI-4
aI5
aI1
aI11
aI0
aI30
aI3
aI7
aa(lp54
I26
aI0
aF1.0
aF1.0
aI30
aI13
aF1.0
aI30
aI30
aI-4
aI6
aI1
aI10
aI0
aI30
aI3
aI6
aa(lp55
I26
aI0
aF1.0
aF1.0
aI30
aI14
aF1.0
aI30
aI30
aI-4
aI7
aI1
aI11
aI0
aI30
aI2
aI5
aa(lp56
I26
aI0
aF1.0
aF1.0
aI30
aI15
aF1.0
aI30
aI30
aI-4
aI6
aI1
aI11
aI0
aI30
aI1
aI4
aa(lp57
I26
aI0
aF1.0
aF1.0
aI30
aI16
aF1.0
aI30
aI30
aI-4
aI7
aI1
aI13
aI0
aI30
aI2
aI3
aa(lp58
I26
aI0
aF1.0
aF1.0
aI30
aI17
aF1.0
aI30
aI30
aI-4
aI8
aI1
aI13
aI0
aI30
aI1
aI2
aa(lp59
I26
aI0
aF1.0
aF1.0
aI30
aI18
aF1.0
aI30
aI30
aI-4
aI9
aI1
aI13
aI0
aI30
aI2
aI1
aa(lp60
I26
aI0
aF1.0
aF1.0
aI30
aI19
aF1.0
aI30
aI30
aI-4
aI10
aI1
aI13
aI0
aI30
aI1
aI0
aa(lp61
I26
aI0
aF1.0
aF1.0
aI29
aI20
aF1.0
aI29
aI29
aI-3
aI11
aI1
aI13
aI0
aI29
aI1
aI1
aa(lp62
I26
aI0
aF1.0
aF1.0
aI28
aI21
aF1.0
aI28
aI28
aI-2
aI12
aI1
aI13
aI0
aI28
aI3
aI2
aa(lp63
I26
aI0
aF1.0
aF1.0
aI28
aI22
aF1.0
aI28
aI28
aI-2
aI13
aI1
aI13
aI0
aI28
aI2
aI3
aa(lp64
I26
aI0
aF1.0
aF1.0
aI28
aI23
aF1.0
aI28
aI28
aI-2
aI14
aI1
aI15
aI0
aI28
aI1
aI4
aa(lp65
I26
aI0
aF1.0
aF1.0
aI27
aI24
aF1.0
aI27
aI27
aI-1
aI15
aI1
aI17
aI0
aI27
aI1
aI5
aa(lp66
I26
aI1
aF1.0
aF1.0
aI26
aI25
aF1.0
aI26
aI26
aI0
aI16
aI1
aI19
aI20
aI26
aI8
aI6
aa(lp67
I26
aI0
aF1.0
aF1.0
aI26
aI25
aF1.0
aI26
aI26
aI0
aI16
aI1
aI20
aI0
aI26
aI8
aI6
aa(lp68
I26
aI0
aF1.0
aF1.0
aI26
aI24
aF1.0
aI26
aI26
aI0
aI15
aI1
aI20
aI0
aI26
aI7
aI5
aa(lp69
I26
aI0
aF1.0
aF1.0
aI26
aI23
aF1.0
aI26
aI26
aI0
aI14
aI1
aI20
aI0
aI26
aI6
aI4
aa(lp70
I26
aI0
aF1.0
aF1.0
aI26
aI22
aF1.0
aI26
aI26
aI0
aI13
aI1
aI18
aI0
aI26
aI5
aI3
aa(lp71
I26
aI0
aF1.0
aF1.0
aI26
aI21
aF1.0
aI26
aI26
aI0
aI12
aI1
aI16
aI0
aI26
aI4
aI2
aa(lp72
I26
aI0
aF1.0
aF1.0
aI26
aI22
aF1.0
aI26
aI26
aI0
aI13
aI1
aI16
aI0
aI26
aI4
aI3
aa(lp73
I26
aI0
aF1.0
aF1.0
aI26
aI23
aF1.0
aI26
aI26
aI0
aI14
aI1
aI16
aI0
aI26
aI3
aI4
aa(lp74
I26
aI0
aF1.0
aF1.0
aI26
aI24
aF1.0
aI26
aI26
aI0
aI15
aI1
aI16
aI0
aI26
aI2
aI5
aa(lp75
I26
aI0
aF1.0
aF1.0
aI26
aI25
aF1.0
aI26
aI26
aI0
aI16
aI1
aI16
aI0
aI26
aI1
aI6
aa(lp76
I26
aI0
aF1.0
aF1.0
aI25
aI26
aF1.0
aI25
aI25
aI1
aI17
aI1
aI18
aI0
aI25
aI1
aI7
aa(lp77
I26
aI0
aF1.0
aF1.0
aI24
aI27
aF1.0
aI24
aI24
aI2
aI18
aI1
aI20
aI0
aI24
aI1
aI8
aa(lp78
I26
aI0
aF1.0
aF1.0
aI23
aI28
aF1.0
aI23
aI23
aI3
aI19
aI1
aI20
aI0
aI23
aI5
aI9
aa(lp79
I26
aI0
aF1.0
aF1.0
aI23
aI27
aF1.0
aI23
aI23
aI3
aI18
aI1
aI20
aI0
aI23
aI4
aI8
aa(lp80
I26
aI0
aF1.0
aF1.0
aI23
aI26
aF1.0
aI23
aI23
aI3
aI17
aI0
aI18
aI0
aI23
aI3
aI7
aa(lp81
I26
aI0
aF1.0
aF1.0
aI23
aI25
aF1.0
aI23
aI23
aI3
aI16
aI0
aI16
aI0
aI23
aI2
aI6
aa(lp82
I26
aI0
aF1.0
aF1.0
aI23
aI24
aF1.0
aI23
aI23
aI3
aI15
aI0
aI14
aI0
aI23
aI1
aI5
aa(lp83
I26
aI0
aF1.0
aF1.0
aI21
aI25
aF1.0
aI21
aI21
aI5
aI16
aI0
aI16
aI0
aI21
aI1
aI6
aa(lp84
I26
aI0
aF1.0
aF1.0
aI20
aI26
aF1.0
aI20
aI20
aI6
aI17
aI0
aI16
aI0
aI20
aI7
aI7
aa(lp85
I26
aI0
aF1.0
aF1.0
aI20
aI25
aF1.0
aI20
aI20
aI6
aI16
aI0
aI14
aI0
aI20
aI6
aI6
aa(lp86
I26
aI0
aF1.0
aF1.0
aI20
aI24
aF1.0
aI20
aI20
aI6
aI15
aI0
aI12
aI0
aI20
aI5
aI5
aa(lp87
I26
aI0
aF1.0
aF1.0
aI20
aI23
aF1.0
aI20
aI20
aI6
aI14
aI0
aI10
aI0
aI20
aI4
aI4
aa(lp88
I26
aI0
aF1.0
aF1.0
aI20
aI22
aF1.0
aI20
aI20
aI6
aI13
aI0
aI10
aI0
aI20
aI3
aI3
aa(lp89
I26
aI0
aF1.0
aF1.0
aI20
aI21
aF1.0
aI20
aI20
aI6
aI12
aI0
aI10
aI0
aI20
aI2
aI2
aa(lp90
I26
aI0
aF1.0
aF1.0
aI20
aI20
aF1.0
aI20
aI20
aI6
aI11
aI0
aI10
aI0
aI20
aI1
aI1
aa(lp91
I26
aI0
aF1.0
aF1.0
aI19
aI21
aF1.0
aI19
aI19
aI7
aI12
aI1
aI12
aI0
aI19
aI2
aI5
aa(lp92
I26
aI1
aF1.0
aF1.0
aI19
aI20
aF1.0
aI19
aI19
aI7
aI11
aI1
aI12
aI14
aI19
aI3
aI4
aa(lp93
I26
aI1
aF1.0
aF1.0
aI19
aI20
aF1.0
aI19
aI19
aI7
aI11
aI1
aI13
aI15
aI19
aI3
aI4
aa(lp94
I26
aI1
aF1.0
aF1.0
aI19
aI21
aF1.0
aI19
aI19
aI7
aI12
aI1
aI15
aI17
aI19
aI2
aI5
aa(lp95
I26
aI1
aF1.0
aF1.0
aI19
aI22
aF1.0
aI19
aI19
aI7
aI13
aI1
aI17
aI19
aI19
aI1
aI6
aa(lp96
I26
aI1
aF1.0
aF1.0
aI18
aI23
aF1.0
aI18
aI18
aI8
aI14
aI1
aI19
aI21
aI18
aI2
aI7
aa(lp97
I26
aI1
aF1.0
aF1.0
aI18
aI24
aF1.0
aI18
aI18
aI8
aI15
aI1
aI21
aI23
aI18
aI3
aI8
aa(lp98
I26
aI1
aF1.0
aF1.0
aI18
aI25
aF1.0
aI18
aI18
aI8
aI16
aI1
aI23
aI25
aI18
aI4
aI9
aa(lp99
I26
aI1
aF1.0
aF1.0
aI18
aI26
aF1.0
aI18
aI18
aI8
aI17
aI1
aI25
aI27
aI18
aI4
aI10
aa(lp100
I26
aI1
aF1.0
aF1.0
aI18
aI27
aF1.0
aI18
aI18
aI8
aI18
aI1
aI27
aI29
aI18
aI3
aI11
aa(lp101
I26
aI1
aF1.0
aF1.0
aI18
aI28
aF1.0
aI18
aI18
aI8
aI19
aI1
aI29
aI31
aI18
aI2
aI12
aa(lp102
I25
aI1
aF1.0
aF1.0
aI18
aI29
aF1.0
aI18
aI18
aI7
aI20
aI1
aI31
aI33
aI18
aI1
aI13
aa(lp103
I24
aI1
aF1.0
aF1.0
aI17
aI30
aF1.0
aI17
aI17
aI7
aI21
aI1
aI33
aI35
aI17
aI1
aI15
aa(lp104
I24
aI1
aF1.0
aF1.0
aI17
aI17
aF1.0
aI17
aI17
aI7
aI32
aI2
aI17
aI17
aI17
aI31
aI38
aa(lp105
I24
aI1
aF1.0
aF1.0
aI17
aI17
aF1.0
aI17
aI17
aI7
aI32
aI2
aI16
aI18
aI17
aI31
aI38
aa(lp106
I23
aI1
aF1.0
aF1.0
aI17
aI16
aF1.0
aI17
aI17
aI6
aI31
aI2
aI16
aI18
aI17
aI30
aI37
aa(lp107
I22
aI1
aF1.0
aF1.0
aI17
aI16
aF1.0
aI17
aI17
aI5
aI31
aI2
aI17
aI19
aI17
aI30
aI37
aa(lp108
I22
aI1
aF1.0
aF1.0
aI17
aI15
aF1.0
aI17
aI17
aI5
aI30
aI2
aI15
aI17
aI17
aI29
aI36
aa(lp109
I22
aI1
aF1.0
aF1.0
aI17
aI14
aF1.0
aI17
aI17
aI5
aI29
aI2
aI13
aI15
aI17
aI28
aI35
aa(lp110
I22
aI0
aF1.0
aF1.0
aI17
aI14
aF1.0
aI17
aI17
aI5
aI29
aI2
aI14
aI0
aI17
aI28
aI35
aa(lp111
I22
aI0
aF1.0
aF1.0
aI17
aI13
aF1.0
aI17
aI17
aI5
aI28
aI2
aI14
aI0
aI17
aI27
aI34
aa(lp112
I22
aI0
aF1.0
aF1.0
aI17
aI12
aF1.0
aI17
aI17
aI5
aI27
aI2
aI14
aI0
aI17
aI26
aI33
aa(lp113
I22
aI0
aF1.0
aF1.0
aI17
aI12
aF1.0
aI17
aI17
aI5
aI27
aI2
aI15
aI0
aI17
aI26
aI33
aa(lp114
I22
aI0
aF1.0
aF1.0
aI17
aI12
aF1.0
aI17
aI17
aI5
aI27
aI2
aI14
aI0
aI17
aI26
aI33
aa(lp115
I22
aI0
aF1.0
aF1.0
aI17
aI11
aF1.0
aI17
aI17
aI5
aI26
aI2
aI12
aI0
aI17
aI25
aI32
aa(lp116
I22
aI0
aF1.0
aF1.0
aI17
aI10
aF1.0
aI17
aI17
aI5
aI25
aI2
aI10
aI0
aI17
aI24
aI31
aa(lp117
I22
aI0
aF1.0
aF1.0
aI17
aI9
aF1.0
aI17
aI17
aI5
aI24
aI2
aI8
aI0
aI17
aI23
aI30
aa(lp118
I22
aI0
aF1.0
aF1.0
aI17
aI8
aF1.0
aI17
aI17
aI5
aI25
aI2
aI8
aI0
aI17
aI24
aI31
aa(lp119
I22
aI0
aF1.0
aF1.0
aI17
aI7
aF1.0
aI17
aI17
aI5
aI24
aI2
aI8
aI0
aI17
aI23
aI30
aa(lp120
I22
aI0
aF1.0
aF1.0
aI17
aI6
aF1.0
aI17
aI17
aI5
aI23
aI2
aI8
aI0
aI17
aI22
aI29
aa(lp121
I22
aI0
aF1.0
aF1.0
aI17
aI7
aF1.0
aI17
aI17
aI5
aI24
aI2
aI8
aI0
aI17
aI23
aI30
aa(lp122
I22
aI0
aF1.0
aF1.0
aI17
aI8
aF1.0
aI17
aI17
aI5
aI25
aI2
aI8
aI0
aI17
aI23
aI31
aa(lp123
I22
aI0
aF1.0
aF1.0
aI17
aI9
aF1.0
aI17
aI17
aI5
aI26
aI2
aI8
aI0
aI17
aI22
aI30
aa(lp124
I22
aI0
aF1.0
aF1.0
aI17
aI10
aF1.0
aI17
aI17
aI5
aI25
aI2
aI8
aI0
aI17
aI21
aI29
aa(lp125
I22
aI0
aF1.0
aF1.0
aI17
aI11
aF1.0
aI17
aI17
aI5
aI24
aI2
aI8
aI0
aI17
aI20
aI28
aa(lp126
I22
aI0
aF1.0
aF1.0
aI17
aI12
aF1.0
aI17
aI17
aI5
aI23
aI2
aI7
aI0
aI17
aI19
aI27
aa(lp127
I22
aI0
aF1.0
aF1.0
aI17
aI13
aF1.0
aI17
aI17
aI5
aI22
aI2
aI6
aI0
aI17
aI18
aI26
aa(lp128
I22
aI0
aF1.0
aF1.0
aI17
aI14
aF1.0
aI17
aI17
aI5
aI21
aI2
aI5
aI0
aI17
aI17
aI25
aa(lp129
I22
aI0
aF1.0
aF1.0
aI17
aI15
aF1.0
aI17
aI17
aI5
aI20
aI2
aI4
aI0
aI17
aI16
aI24
aa(lp130
I22
aI0
aF1.0
aF1.0
aI17
aI14
aF1.0
aI17
aI17
aI5
aI19
aI2
aI3
aI0
aI17
aI15
aI23
aa(lp131
I22
aI0
aF1.0
aF1.0
aI17
aI13
aF1.0
aI17
aI17
aI5
aI18
aI2
aI2
aI0
aI17
aI14
aI22
aa(lp132
I22
aI0
aF1.0
aF1.0
aI17
aI12
aF1.0
aI17
aI17
aI5
aI17
aI2
aI2
aI0
aI17
aI13
aI21
aa(lp133
I22
aI0
aF1.0
aF1.0
aI17
aI11
aF1.0
aI17
aI17
aI5
aI16
aI2
aI2
aI0
aI17
aI12
aI20
aa(lp134
I22
aI0
aF1.0
aF1.0
aI17
aI10
aF1.0
aI17
aI17
aI5
aI15
aI2
aI2
aI0
aI17
aI11
aI19
aa(lp135
I22
aI0
aF1.0
aF1.0
aI17
aI9
aF1.0
aI17
aI17
aI5
aI14
aI2
aI2
aI0
aI17
aI12
aI20
aa(lp136
I22
aI0
aF1.0
aF1.0
aI17
aI10
aF1.0
aI17
aI17
aI5
aI15
aI2
aI4
aI0
aI17
aI11
aI19
aa(lp137
I22
aI0
aF1.0
aF1.0
aI17
aI11
aF1.0
aI17
aI17
aI5
aI16
aI2
aI6
aI0
aI17
aI12
aI20
aa(lp138
I22
aI0
aF1.0
aF1.0
aI17
aI10
aF1.0
aI17
aI17
aI5
aI15
aI2
aI6
aI0
aI17
aI11
aI19
aa(lp139
I22
aI1
aF1.0
aF1.0
aI17
aI9
aF1.0
aI17
aI17
aI5
aI14
aI2
aI6
aI5
aI17
aI12
aI20
aa(lp140
I22
aI1
aF1.0
aF1.0
aI17
aI10
aF1.0
aI17
aI17
aI5
aI15
aI2
aI8
aI5
aI17
aI11
aI19
aa(lp141
I22
aI1
aF1.0
aF1.0
aI17
aI9
aF1.0
aI17
aI17
aI5
aI14
aI2
aI6
aI3
aI17
aI12
aI20
aa(lp142
I22
aI1
aF1.0
aF1.0
aI17
aI8
aF1.0
aI17
aI17
aI5
aI13
aI2
aI4
aI3
aI17
aI12
aI19
aa(lp143
I22
aI1
aF1.0
aF1.0
aI17
aI7
aF1.0
aI17
aI17
aI5
aI12
aI2
aI2
aI3
aI17
aI11
aI18
aa(lp144
I22
aI1
aF1.0
aF1.0
aI17
aI6
aF1.0
aI17
aI17
aI5
aI11
aI2
aI2
aI3
aI17
aI10
aI17
aa(lp145
I22
aI1
aF1.0
aF1.0
aI17
aI5
aF1.0
aI17
aI17
aI5
aI12
aI2
aI2
aI3
aI17
aI11
aI18
aa(lp146
I21
aI1
aF1.0
aF1.0
aI17
aI6
aF1.0
aI17
aI17
aI4
aI11
aI2
aI4
aI5
aI17
aI12
aI19
aa(lp147
I21
aI1
aF1.0
aF1.0
aI17
aI7
aF1.0
aI17
aI17
aI4
aI10
aI2
aI6
aI7
aI17
aI11
aI20
aa(lp148
I20
aI1
aF1.0
aF1.0
aI17
aI7
aF1.0
aI17
aI17
aI3
aI11
aI2
aI6
aI7
aI17
aI12
aI19
aa(lp149
I20
aI1
aF1.0
aF1.0
aI17
aI6
aF1.0
aI17
aI17
aI3
aI12
aI2
aI6
aI7
aI17
aI11
aI18
aa(lp150
I20
aI1
aF1.0
aF1.0
aI17
aI7
aF1.0
aI17
aI17
aI3
aI11
aI2
aI8
aI9
aI17
aI10
aI17
aa(lp151
I20
aI1
aF1.0
aF1.0
aI17
aI8
aF1.0
aI17
aI17
aI3
aI10
aI2
aI10
aI11
aI17
aI9
aI16
aa(lp152
I19
aI1
aF1.0
aF1.0
aI17
aI16
aF1.0
aI17
aI17
aI2
aI9
aI2
aI12
aI13
aI17
aI8
aI15
aa(lp153
I19
aI0
aF1.0
aF1.0
aI17
aI15
aF1.0
aI17
aI17
aI2
aI10
aI2
aI14
aI0
aI17
aI7
aI14
aa(lp154
I19
aI0
aF1.0
aF1.0
aI17
aI16
aF1.0
aI17
aI17
aI2
aI9
aI1
aI15
aI0
aI17
aI6
aI13
aa(lp155
I19
aI0
aF1.0
aF1.0
aI17
aI17
aF1.0
aI17
aI17
aI2
aI8
aI1
aI16
aI0
aI17
aI5
aI12
aa(lp156
I19
aI0
aF1.0
aF1.0
aI17
aI18
aF1.0
aI17
aI17
aI2
aI7
aI1
aI17
aI0
aI17
aI4
aI11
aa(lp157
I19
aI0
aF1.0
aF1.0
aI17
aI18
aF1.0
aI17
aI17
aI2
aI7
aI1
aI17
aI0
aI17
aI4
aI11
aa(lp158
I19
aI0
aF1.0
aF1.0
aI17
aI19
aF1.0
aI17
aI17
aI2
aI6
aI1
aI17
aI0
aI17
aI3
aI10
aa(lp159
I19
aI0
aF1.0
aF1.0
aI17
aI20
aF1.0
aI17
aI17
aI2
aI7
aI1
aI18
aI0
aI17
aI2
aI9
aa(lp160
I19
aI0
aF1.0
aF1.0
aI17
aI21
aF1.0
aI17
aI17
aI2
aI6
aI1
aI18
aI0
aI17
aI1
aI8
aa(lp161
I19
aI0
aF1.0
aF1.0
aI16
aI22
aF1.0
aI16
aI16
aI3
aI5
aI1
aI18
aI0
aI16
aI4
aI8
aa(lp162
I19
aI0
aF1.0
aF1.0
aI16
aI23
aF1.0
aI16
aI16
aI3
aI4
aI1
aI16
aI0
aI16
aI5
aI9
aa(lp163
I19
aI0
aF1.0
aF1.0
aI16
aI23
aF1.0
aI16
aI16
aI3
aI4
aI1
aI15
aI0
aI16
aI5
aI9
aa(lp164
I19
aI0
aF1.0
aF1.0
aI16
aI23
aF1.0
aI16
aI16
aI3
aI4
aI1
aI14
aI0
aI16
aI5
aI9
aa(lp165
I19
aI0
aF1.0
aF1.0
aI16
aI23
aF1.0
aI16
aI16
aI3
aI4
aI1
aI13
aI0
aI16
aI5
aI9
aa(lp166
I19
aI0
aF1.0
aF1.0
aI16
aI22
aF1.0
aI16
aI16
aI3
aI3
aI1
aI11
aI0
aI16
aI6
aI10
aa(lp167
I19
aI0
aF1.0
aF1.0
aI16
aI21
aF1.0
aI16
aI16
aI3
aI4
aI1
aI9
aI0
aI16
aI7
aI11
aa(lp168
I19
aI0
aF1.0
aF1.0
aI16
aI22
aF1.0
aI16
aI16
aI3
aI3
aI1
aI9
aI0
aI16
aI8
aI12
aa(lp169
I19
aI0
aF1.0
aF1.0
aI16
aI23
aF1.0
aI16
aI16
aI3
aI2
aI1
aI10
aI0
aI16
aI7
aI11
aa(lp170
I19
aI0
aF1.0
aF1.0
aI16
aI23
aF1.0
aI16
aI16
aI3
aI2
aI1
aI10
aI0
aI16
aI7
aI11
aa(lp171
I19
aI0
aF1.0
aF1.0
aI16
aI23
aF1.0
aI16
aI16
aI3
aI2
aI1
aI9
aI0
aI16
aI7
aI11
aa(lp172
I19
aI0
aF1.0
aF1.0
aI16
aI24
aF1.0
aI16
aI16
aI3
aI1
aI1
aI11
aI0
aI16
aI8
aI12
aa(lp173
I19
aI0
aF1.0
aF1.0
aI16
aI25
aF1.0
aI16
aI16
aI3
aI0
aI1
aI13
aI0
aI16
aI9
aI13
aa(lp174
I19
aI0
aF1.0
aF1.0
aI16
aI25
aF1.0
aI16
aI16
aI3
aI0
aI1
aI14
aI0
aI16
aI9
aI13
aa(lp175
I19
aI0
aF1.0
aF1.0
aI16
aI24
aF1.0
aI16
aI16
aI3
aI0
aI1
aI14
aI0
aI16
aI8
aI12
aa(lp176
I19
aI0
aF1.0
aF1.0
aI16
aI23
aF1.0
aI16
aI16
aI3
aI0
aI1
aI14
aI0
aI16
aI7
aI11
aa(lp177
I19
aI1
aF1.0
aF1.0
aI16
aI22
aF1.0
aI16
aI16
aI3
aI0
aI1
aI14
aI11
aI16
aI6
aI10
aa(lp178
I19
aI1
aF1.0
aF1.0
aI16
aI23
aF1.0
aI16
aI16
aI3
aI0
aI1
aI16
aI11
aI16
aI5
aI9
aa(lp179
I19
aI1
aF1.0
aF1.0
aI16
aI22
aF1.0
aI16
aI16
aI3
aI0
aI1
aI14
aI11
aI16
aI4
aI8
aa(lp180
I19
aI1
aF1.0
aF1.0
aI16
aI21
aF1.0
aI16
aI16
aI3
aI0
aI1
aI12
aI11
aI16
aI3
aI7
aa(lp181
I19
aI0
aF1.0
aF1.0
aI16
aI21
aF1.0
aI16
aI16
aI3
aI0
aI1
aI11
aI0
aI16
aI3
aI7
aa(lp182
I19
aI0
aF1.0
aF1.0
aI16
aI21
aF1.0
aI16
aI16
aI3
aI0
aI1
aI12
aI0
aI16
aI3
aI7
aa(lp183
I19
aI0
aF1.0
aF1.0
aI16
aI22
aF1.0
aI16
aI16
aI3
aI0
aI1
aI12
aI0
aI16
aI2
aI6
aa(lp184
I19
aI0
aF1.0
aF1.0
aI16
aI23
aF1.0
aI16
aI16
aI3
aI0
aI1
aI12
aI0
aI16
aI1
aI5
aa(lp185
I19
aI0
aF1.0
aF1.0
aI15
aI24
aF1.0
aI15
aI15
aI4
aI0
aI1
aI12
aI0
aI15
aI1
aI5
aa(lp186
I19
aI0
aF1.0
aF1.0
aI14
aI25
aF1.0
aI14
aI14
aI5
aI0
aI1
aI12
aI0
aI14
aI8
aI6
aa(lp187
I19
aI0
aF1.0
aF1.0
aI14
aI24
aF1.0
aI14
aI14
aI5
aI0
aI1
aI10
aI0
aI14
aI7
aI5
aa(lp188
I19
aI0
aF1.0
aF1.0
aI14
aI23
aF1.0
aI14
aI14
aI5
aI0
aI0
aI8
aI0
aI14
aI6
aI4
aa(lp189
I19
aI0
aF1.0
aF1.0
aI14
aI24
aF1.0
aI14
aI14
aI5
aI0
aI0
aI9
aI0
aI14
aI5
aI3
aa(lp190
I19
aI0
aF1.0
aF1.0
aI14
aI25
aF1.0
aI14
aI14
aI5
aI0
aI0
aI10
aI0
aI14
aI4
aI2
aa(lp191
I19
aI0
aF1.0
aF1.0
aI14
aI26
aF1.0
aI14
aI14
aI5
aI0
aI0
aI11
aI0
aI14
aI3
aI3
aa(lp192
I19
aI0
aF1.0
aF1.0
aI14
aI27
aF1.0
aI14
aI14
aI5
aI0
aI0
aI11
aI0
aI14
aI2
aI4
aa(lp193
I19
aI0
aF1.0
aF1.0
aI14
aI28
aF1.0
aI14
aI14
aI5
aI0
aI0
aI11
aI0
aI14
aI1
aI5
aa(lp194
I19
aI0
aF1.0
aF1.0
aI13
aI29
aF1.0
aI13
aI13
aI6
aI0
aI0
aI11
aI0
aI13
aI2
aI13
aa(lp195
I19
aI0
aF1.0
aF1.0
aI13
aI28
aF1.0
aI13
aI13
aI6
aI0
aI0
aI9
aI0
aI13
aI1
aI12
aa(lp196
I19
aI0
aF1.0
aF1.0
aI12
aI29
aF1.0
aI12
aI12
aI7
aI0
aI0
aI9
aI0
aI12
aI4
aI13
aa(lp197
I19
aI0
aF1.0
aF1.0
aI12
aI30
aF1.0
aI12
aI12
aI7
aI0
aI0
aI9
aI0
aI12
aI3
aI14
aa(lp198
I19
aI0
aF1.0
aF1.0
aI12
aI31
aF1.0
aI12
aI12
aI7
aI0
aI0
aI9
aI0
aI12
aI2
aI15
aa(lp199
I19
aI0
aF1.0
aF1.0
aI12
aI32
aF1.0
aI12
aI12
aI7
aI0
aI0
aI11
aI0
aI12
aI1
aI16
aa(lp200
I19
aI0
aF1.0
aF1.0
aI11
aI33
aF1.0
aI11
aI11
aI8
aI0
aI0
aI13
aI0
aI11
aI1
aI18
aa(lp201
I19
aI0
aF1.0
aF1.0
aI10
aI34
aF1.0
aI10
aI10
aI9
aI0
aI0
aI15
aI0
aI10
aI15
aI20
aa(lp202
I19
aI0
aF1.0
aF1.0
aI10
aI34
aF1.0
aI10
aI10
aI9
aI0
aI0
aI15
aI0
aI10
aI15
aI20
aa(lp203
I19
aI0
aF1.0
aF1.0
aI10
aI33
aF1.0
aI10
aI10
aI9
aI0
aI0
aI14
aI0
aI10
aI14
aI19
aa(lp204
I19
aI0
aF1.0
aF1.0
aI10
aI32
aF1.0
aI10
aI10
aI9
aI0
aI0
aI14
aI0
aI10
aI13
aI18
aa(lp205
I19
aI0
aF1.0
aF1.0
aI10
aI31
aF1.0
aI10
aI10
aI9
aI0
aI0
aI14
aI0
aI10
aI12
aI17
aa(lp206
I19
aI1
aF1.0
aF1.0
aI10
aI30
aF1.0
aI10
aI10
aI9
aI0
aI0
aI14
aI18
aI10
aI11
aI16
aa(lp207
I19
aI1
aF1.0
aF1.0
aI10
aI29
aF1.0
aI10
aI10
aI9
aI0
aI1
aI14
aI18
aI10
aI10
aI15
aa(lp208
I19
aI1
aF1.0
aF1.0
aI10
aI28
aF1.0
aI10
aI10
aI9
aI0
aI1
aI14
aI18
aI10
aI9
aI14
aa(lp209
I19
aI1
aF1.0
aF1.0
aI10
aI29
aF1.0
aI10
aI10
aI9
aI0
aI1
aI16
aI20
aI10
aI8
aI15
aa(lp210
I19
aI1
aF1.0
aF1.0
aI10
aI30
aF1.0
aI10
aI10
aI9
aI0
aI1
aI18
aI22
aI10
aI7
aI16
aa(lp211
I19
aI1
aF1.0
aF1.0
aI10
aI31
aF1.0
aI10
aI10
aI9
aI0
aI1
aI20
aI24
aI10
aI6
aI17
aa(lp212
I19
aI1
aF1.0
aF1.0
aI10
aI32
aF1.0
aI10
aI10
aI9
aI0
aI1
aI22
aI26
aI10
aI5
aI18
aa(lp213
I19
aI1
aF1.0
aF1.0
aI10
aI33
aF1.0
aI10
aI10
aI9
aI0
aI1
aI23
aI28
aI10
aI4
aI19
aa(lp214
I19
aI1
aF1.0
aF1.0
aI10
aI34
aF1.0
aI10
aI10
aI9
aI0
aI1
aI24
aI30
aI10
aI3
aI20
aa(lp215
I19
aI1
aF1.0
aF1.0
aI10
aI35
aF1.0
aI10
aI10
aI9
aI0
aI1
aI25
aI31
aI10
aI2
aI21
aa(lp216
I19
aI1
aF1.0
aF1.0
aI10
aI36
aF1.0
aI10
aI10
aI9
aI0
aI1
aI27
aI34
aI10
aI1
aI22
aa(lp217
I18
aI1
aF1.0
aF1.0
aI10
aI31
aF1.0
aI10
aI10
aI8
aI0
aI1
aI28
aI34
aI10
aI1
aI22
aa(lp218
I18
aI1
aF1.0
aF1.0
aI10
aI31
aF1.0
aI10
aI10
aI8
aI0
aI1
aI29
aI49
aI10
aI1
aI22
aa(lp219
I17
aI1
aF1.0
aF1.0
aI10
aI31
aF1.0
aI10
aI10
aI7
aI0
aI1
aI30
aI36
aI10
aI1
aI22
aa(lp220
I17
aI1
aF1.0
aF1.0
aI9
aI32
aF1.0
aI9
aI9
aI8
aI0
aI1
aI32
aI37
aI9
aI20
aI28
aa(lp221
I16
aI1
aF1.0
aF1.0
aI9
aI32
aF1.0
aI9
aI9
aI7
aI0
aI1
aI33
aI38
aI9
aI20
aI28
aa(lp222
I16
aI1
aF1.0
aF1.0
aI9
aI31
aF1.0
aI9
aI9
aI7
aI0
aI1
aI33
aI36
aI9
aI19
aI27
aa(lp223
I15
aI1
aF1.0
aF1.0
aI9
aI31
aF1.0
aI9
aI9
aI6
aI0
aI1
aI34
aI37
aI9
aI19
aI27
aa(lp224
I15
aI1
aF1.0
aF1.0
aI9
aI30
aF1.0
aI9
aI9
aI6
aI0
aI1
aI34
aI35
aI9
aI18
aI26
aa(lp225
I15
aI1
aF1.0
aF1.0
aI9
aI29
aF1.0
aI9
aI9
aI6
aI0
aI1
aI34
aI35
aI9
aI17
aI25
aa(lp226
I15
aI1
aF1.0
aF1.0
aI9
aI28
aF1.0
aI9
aI9
aI6
aI0
aI1
aI34
aI35
aI9
aI16
aI24
aa(lp227
I15
aI1
aF1.0
aF1.0
aI9
aI27
aF1.0
aI9
aI9
aI6
aI0
aI1
aI34
aI35
aI9
aI15
aI23
aa(lp228
I15
aI1
aF1.0
aF1.0
aI9
aI26
aF1.0
aI9
aI9
aI6
aI0
aI1
aI32
aI35
aI9
aI14
aI22
aa(lp229
I14
aI1
aF1.0
aF1.0
aI9
aI26
aF1.0
aI9
aI9
aI5
aI0
aI1
aI30
aI35
aI9
aI13
aI21
aa(lp230
I13
aI1
aF1.0
aF1.0
aI9
aI25
aF1.0
aI9
aI9
aI4
aI0
aI1
aI28
aI34
aI9
aI12
aI20
aa(lp231
I13
aI1
aF1.0
aF1.0
aI9
aI24
aF1.0
aI9
aI9
aI4
aI0
aI1
aI26
aI33
aI9
aI11
aI19
aa(lp232
I13
aI1
aF1.0
aF1.0
aI9
aI23
aF1.0
aI9
aI9
aI4
aI0
aI1
aI25
aI32
aI9
aI10
aI18
aa(lp233
I13
aI1
aF1.0
aF1.0
aI9
aI22
aF1.0
aI9
aI9
aI4
aI0
aI1
aI25
aI29
aI9
aI9
aI17
aa(lp234
I13
aI1
aF1.0
aF1.0
aI9
aI22
aF1.0
aI9
aI9
aI4
aI0
aI1
aI26
aI28
aI9
aI9
aI17
aa(lp235
I13
aI0
aF1.0
aF1.0
aI9
aI23
aF1.0
aI9
aI9
aI4
aI0
aI1
aI28
aI0
aI9
aI8
aI16
aa(lp236
I13
aI0
aF1.0
aF1.0
aI9
aI24
aF1.0
aI9
aI9
aI4
aI0
aI1
aI30
aI0
aI9
aI7
aI15
aa(lp237
I13
aI0
aF1.0
aF1.0
aI9
aI25
aF1.0
aI9
aI9
aI4
aI0
aI1
aI32
aI0
aI9
aI8
aI16
aa(lp238
I13
aI0
aF1.0
aF1.0
aI9
aI26
aF1.0
aI9
aI9
aI4
aI0
aI1
aI32
aI0
aI9
aI9
aI17
aa(lp239
I13
aI0
aF1.0
aF1.0
aI9
aI27
aF1.0
aI9
aI9
aI4
aI0
aI1
aI32
aI0
aI9
aI10
aI18
aa(lp240
I13
aI0
aF1.0
aF1.0
aI9
aI28
aF1.0
aI9
aI9
aI4
aI0
aI1
aI32
aI0
aI9
aI11
aI19
aa(lp241
I13
aI0
aF1.0
aF1.0
aI9
aI27
aF1.0
aI9
aI9
aI4
aI0
aI1
aI30
aI0
aI9
aI10
aI18
aa(lp242
I13
aI0
aF1.0
aF1.0
aI9
aI26
aF1.0
aI9
aI9
aI4
aI0
aI1
aI28
aI0
aI9
aI9
aI17
aa(lp243
I13
aI0
aF1.0
aF1.0
aI9
aI25
aF1.0
aI9
aI9
aI4
aI0
aI1
aI27
aI0
aI9
aI8
aI16
aa(lp244
I13
aI0
aF1.0
aF1.0
aI9
aI24
aF1.0
aI9
aI9
aI4
aI0
aI1
aI25
aI0
aI9
aI7
aI15
aa(lp245
I13
aI0
aF1.0
aF1.0
aI9
aI23
aF1.0
aI9
aI9
aI4
aI0
aI1
aI23
aI0
aI9
aI8
aI16
aa(lp246
I13
aI0
aF1.0
aF1.0
aI9
aI22
aF1.0
aI9
aI9
aI4
aI0
aI1
aI21
aI0
aI9
aI9
aI17
aa(lp247
I13
aI0
aF1.0
aF1.0
aI9
aI21
aF1.0
aI9
aI9
aI4
aI0
aI1
aI19
aI0
aI9
aI10
aI16
aa(lp248
I13
aI0
aF1.0
aF1.0
aI9
aI20
aF1.0
aI9
aI9
aI4
aI0
aI1
aI17
aI0
aI9
aI11
aI15
aa(lp249
I13
aI0
aF1.0
aF1.0
aI9
aI21
aF1.0
aI9
aI9
aI4
aI0
aI1
aI17
aI0
aI9
aI10
aI16
aa(lp250
I13
aI0
aF1.0
aF1.0
aI9
aI22
aF1.0
aI9
aI9
aI4
aI0
aI1
aI19
aI0
aI9
aI9
aI17
aa(lp251
I13
aI0
aF1.0
aF1.0
aI9
aI23
aF1.0
aI9
aI9
aI4
aI0
aI1
aI21
aI0
aI9
aI8
aI16
aa(lp252
I13
aI0
aF1.0
aF1.0
aI9
aI24
aF1.0
aI9
aI9
aI4
aI0
aI1
aI21
aI0
aI9
aI7
aI15
aa(lp253
I13
aI0
aF1.0
aF1.0
aI9
aI25
aF1.0
aI9
aI9
aI4
aI0
aI1
aI21
aI0
aI9
aI8
aI16
aa(lp254
I13
aI0
aF1.0
aF1.0
aI9
aI26
aF1.0
aI9
aI9
aI4
aI0
aI1
aI21
aI0
aI9
aI9
aI17
aa(lp255
I13
aI0
aF1.0
aF1.0
aI9
aI27
aF1.0
aI9
aI9
aI4
aI0
aI1
aI22
aI0
aI9
aI10
aI18
aa(lp256
I13
aI0
aF1.0
aF1.0
aI9
aI28
aF1.0
aI9
aI9
aI4
aI0
aI1
aI23
aI0
aI9
aI11
aI19
aa(lp257
I13
aI0
aF1.0
aF1.0
aI9
aI28
aF1.0
aI9
aI9
aI4
aI0
aI1
aI23
aI0
aI9
aI11
aI19
aa(lp258
I13
aI0
aF1.0
aF1.0
aI9
aI27
aF1.0
aI9
aI9
aI4
aI0
aI1
aI22
aI0
aI9
aI10
aI18
aa(lp259
I13
aI0
aF1.0
aF1.0
aI9
aI26
aF1.0
aI9
aI9
aI4
aI0
aI1
aI21
aI0
aI9
aI9
aI17
aa(lp260
I13
aI0
aF1.0
aF1.0
aI9
aI25
aF1.0
aI9
aI9
aI4
aI0
aI1
aI19
aI0
aI9
aI8
aI16
aa(lp261
I13
aI0
aF1.0
aF1.0
aI9
aI24
aF1.0
aI9
aI9
aI4
aI0
aI1
aI19
aI0
aI9
aI7
aI15
aa(lp262
I13
aI0
aF1.0
aF1.0
aI9
aI25
aF1.0
aI9
aI9
aI4
aI0
aI1
aI19
aI0
aI9
aI6
aI14
aa(lp263
I13
aI0
aF1.0
aF1.0
aI9
aI26
aF1.0
aI9
aI9
aI4
aI0
aI1
aI19
aI0
aI9
aI5
aI13
aa(lp264
I13
aI1
aF1.0
aF1.0
aI9
aI27
aF1.0
aI9
aI9
aI4
aI0
aI1
aI19
aI17
aI9
aI4
aI12
aa(lp265
I13
aI1
aF1.0
aF1.0
aI9
aI28
aF1.0
aI9
aI9
aI4
aI0
aI1
aI21
aI19
aI9
aI3
aI11
aa(lp266
I13
aI0
aF1.0
aF1.0
aI9
aI29
aF1.0
aI9
aI9
aI4
aI0
aI1
aI21
aI0
aI9
aI2
aI10
aa(lp267
I13
aI0
aF1.0
aF1.0
aI9
aI28
aF1.0
aI9
aI9
aI4
aI0
aI1
aI19
aI0
aI9
aI1
aI9
aa(lp268
I13
aI0
aF1.0
aF1.0
aI9
aI27
aF1.0
aI9
aI9
aI4
aI0
aI1
aI17
aI0
aI9
aI2
aI8
aa(lp269
I13
aI0
aF1.0
aF1.0
aI9
aI26
aF1.0
aI9
aI9
aI4
aI0
aI1
aI17
aI0
aI9
aI1
aI7
aa(lp270
I13
aI0
aF1.0
aF1.0
aI8
aI25
aF1.0
aI8
aI8
aI5
aI0
aI1
aI17
aI0
aI8
aI2
aI6
aa(lp271
I13
aI0
aF1.0
aF1.0
aI8
aI24
aF1.0
aI8
aI8
aI5
aI0
aI1
aI17
aI0
aI8
aI1
aI5
aa(lp272
I13
aI0
aF1.0
aF1.0
aI7
aI23
aF1.0
aI7
aI7
aI6
aI0
aI1
aI17
aI0
aI7
aI6
aI6
aa(lp273
I13
aI0
aF1.0
aF1.0
aI7
aI22
aF1.0
aI7
aI7
aI6
aI0
aI1
aI17
aI0
aI7
aI6
aI5
aa(lp274
I13
aI0
aF1.0
aF1.0
aI7
aI21
aF1.0
aI7
aI7
aI6
aI0
aI1
aI17
aI0
aI7
aI5
aI4
aa(lp275
I13
aI0
aF1.0
aF1.0
aI7
aI22
aF1.0
aI7
aI7
aI6
aI0
aI1
aI17
aI0
aI7
aI4
aI3
aa(lp276
I13
aI0
aF1.0
aF1.0
aI7
aI23
aF1.0
aI7
aI7
aI6
aI0
aI1
aI17
aI0
aI7
aI3
aI4
aa(lp277
I13
aI0
aF1.0
aF1.0
aI7
aI24
aF1.0
aI7
aI7
aI6
aI0
aI1
aI17
aI0
aI7
aI2
aI3
aa(lp278
I13
aI0
aF1.0
aF1.0
aI7
aI25
aF1.0
aI7
aI7
aI6
aI0
aI1
aI17
aI0
aI7
aI1
aI4
aa(lp279
I13
aI0
aF1.0
aF1.0
aI6
aI26
aF1.0
aI6
aI6
aI7
aI0
aI1
aI17
aI0
aI6
aI1
aI5
aa(lp280
I13
aI0
aF1.0
aF1.0
aI5
aI27
aF1.0
aI5
aI5
aI8
aI0
aI1
aI17
aI0
aI5
aI12
aI9
aa(lp281
I13
aI0
aF1.0
aF1.0
aI5
aI26
aF1.0
aI5
aI5
aI8
aI0
aI1
aI15
aI0
aI5
aI11
aI8
aa(lp282
I13
aI0
aF1.0
aF1.0
aI5
aI25
aF1.0
aI5
aI5
aI8
aI0
aI1
aI13
aI0
aI5
aI10
aI7
aa(lp283
I13
aI0
aF1.0
aF1.0
aI5
aI24
aF1.0
aI5
aI5
aI8
aI0
aI1
aI13
aI0
aI5
aI9
aI6
aa(lp284
I13
aI0
aF1.0
aF1.0
aI5
aI23
aF1.0
aI5
aI5
aI8
aI0
aI1
aI13
aI0
aI5
aI8
aI5
aa(lp285
I13
aI0
aF1.0
aF1.0
aI5
aI24
aF1.0
aI5
aI5
aI8
aI0
aI1
aI13
aI0
aI5
aI7
aI4
aa(lp286
I13
aI0
aF1.0
aF1.0
aI5
aI25
aF1.0
aI5
aI5
aI8
aI0
aI1
aI15
aI0
aI5
aI6
aI3
aa(lp287
I13
aI0
aF1.0
aF1.0
aI5
aI26
aF1.0
aI5
aI5
aI8
aI0
aI1
aI15
aI0
aI5
aI5
aI2
aa(lp288
I13
aI0
aF1.0
aF1.0
aI5
aI27
aF1.0
aI5
aI5
aI8
aI0
aI1
aI15
aI0
aI5
aI4
aI1
aa(lp289
I13
aI0
aF1.0
aF1.0
aI5
aI28
aF1.0
aI5
aI5
aI8
aI0
aI1
aI17
aI0
aI5
aI3
aI0
aa(lp290
I13
aI1
aF1.0
aF1.0
aI5
aI29
aF1.0
aI5
aI5
aI8
aI0
aI1
aI17
aI14
aI5
aI2
aI1
aa(lp291
I13
aI1
aF1.0
aF1.0
aI5
aI30
aF1.0
aI5
aI5
aI8
aI0
aI1
aI19
aI16
aI5
aI1
aI2
aa(lp292
I13
aI1
aF1.0
aF1.0
aI4
aI31
aF1.0
aI4
aI4
aI9
aI0
aI1
aI19
aI18
aI4
aI1
aI12
aa(lp293
I13
aI1
aF1.0
aF1.0
aI3
aI32
aF1.0
aI3
aI3
aI10
aI0
aI1
aI21
aI19
aI3
aI13
aI13
aa(lp294
I13
aI0
aF1.0
aF1.0
aI3
aI15
aF1.0
aI3
aI3
aI10
aI0
aI2
aI25
aI0
aI3
aI42
aI42
aa(lp295
I13
aI0
aF1.0
aF1.0
aI3
aI15
aF1.0
aI3
aI3
aI10
aI0
aI2
aI24
aI0
aI3
aI42
aI42
aa(lp296
I13
aI0
aF1.0
aF1.0
aI3
aI15
aF1.0
aI3
aI3
aI10
aI0
aI2
aI25
aI0
aI3
aI42
aI42
aa(lp297
I13
aI0
aF1.0
aF1.0
aI3
aI15
aF1.0
aI3
aI3
aI10
aI0
aI2
aI26
aI0
aI3
aI42
aI42
aa(lp298
I13
aI0
aF1.0
aF1.0
aI3
aI15
aF1.0
aI3
aI3
aI10
aI0
aI2
aI25
aI0
aI3
aI42
aI42
aa(lp299
I13
aI0
aF1.0
aF1.0
aI3
aI15
aF1.0
aI3
aI3
aI10
aI0
aI2
aI24
aI0
aI3
aI42
aI42
aa(lp300
I13
aI0
aF1.0
aF1.0
aI3
aI15
aF1.0
aI3
aI3
aI10
aI0
aI2
aI25
aI0
aI3
aI42
aI42
aa(lp301
I13
aI0
aF1.0
aF1.0
aI3
aI15
aF1.0
aI3
aI3
aI10
aI0
aI2
aI24
aI0
aI3
aI42
aI42
aa(lp302
I13
aI0
aF1.0
aF1.0
aI3
aI15
aF1.0
aI3
aI3
aI10
aI0
aI2
aI23
aI0
aI3
aI42
aI42
aa(lp303
I13
aI0
aF1.0
aF1.0
aI3
aI15
aF1.0
aI3
aI3
aI10
aI0
aI2
aI22
aI0
aI3
aI42
aI42
aa(lp304
I13
aI0
aF1.0
aF1.0
aI3
aI14
aF1.0
aI3
aI3
aI10
aI0
aI2
aI20
aI0
aI3
aI41
aI41
aa(lp305
I13
aI0
aF1.0
aF1.0
aI3
aI14
aF1.0
aI3
aI3
aI10
aI0
aI2
aI21
aI0
aI3
aI41
aI41
aa(lp306
I13
aI0
aF1.0
aF1.0
aI3
aI13
aF1.0
aI3
aI3
aI10
aI0
aI2
aI21
aI0
aI3
aI40
aI40
aa(lp307
I13
aI0
aF1.0
aF1.0
aI3
aI12
aF1.0
aI3
aI3
aI10
aI0
aI2
aI21
aI0
aI3
aI39
aI39
aa(lp308
I13
aI0
aF1.0
aF1.0
aI3
aI12
aF1.0
aI3
aI3
aI10
aI0
aI2
aI22
aI0
aI3
aI39
aI39
aa(lp309
I13
aI0
aF1.0
aF1.0
aI3
aI11
aF1.0
aI3
aI3
aI10
aI0
aI2
aI20
aI0
aI3
aI38
aI38
aa(lp310
I13
aI0
aF1.0
aF1.0
aI3
aI10
aF1.0
aI3
aI3
aI10
aI0
aI2
aI20
aI0
aI3
aI37
aI37
aa(lp311
I13
aI0
aF1.0
aF1.0
aI3
aI10
aF1.0
aI3
aI3
aI10
aI0
aI2
aI21
aI0
aI3
aI37
aI37
aa(lp312
I13
aI0
aF1.0
aF1.0
aI3
aI10
aF1.0
aI3
aI3
aI10
aI0
aI2
aI22
aI0
aI3
aI37
aI37
aa(lp313
I13
aI0
aF1.0
aF1.0
aI3
aI9
aF1.0
aI3
aI3
aI10
aI0
aI2
aI22
aI0
aI3
aI36
aI36
aa(lp314
I13
aI0
aF1.0
aF1.0
aI3
aI8
aF1.0
aI3
aI3
aI10
aI0
aI2
aI20
aI0
aI3
aI35
aI35
aa(lp315
I13
aI0
aF1.0
aF1.0
aI3
aI7
aF1.0
aI3
aI3
aI10
aI0
aI2
aI18
aI0
aI3
aI34
aI34
aa(lp316
I13
aI0
aF1.0
aF1.0
aI3
aI6
aF1.0
aI3
aI3
aI10
aI0
aI2
aI16
aI0
aI3
aI33
aI33
aa(lp317
I13
aI0
aF1.0
aF1.0
aI3
aI5
aF1.0
aI3
aI3
aI10
aI0
aI2
aI14
aI0
aI3
aI32
aI32
aa(lp318
I13
aI1
aF1.0
aF1.0
aI3
aI6
aF1.0
aI3
aI3
aI10
aI0
aI2
aI16
aI19
aI3
aI33
aI33
aa(lp319
I13
aI1
aF1.0
aF1.0
aI3
aI7
aF1.0
aI3
aI3
aI10
aI0
aI2
aI16
aI19
aI3
aI34
aI34
aa(lp320
I13
aI1
aF1.0
aF1.0
aI3
aI8
aF1.0
aI3
aI3
aI10
aI0
aI2
aI14
aI17
aI3
aI33
aI33
aa(lp321
I13
aI1
aF1.0
aF1.0
aI3
aI9
aF1.0
aI3
aI3
aI10
aI0
aI2
aI12
aI15
aI3
aI32
aI32
aa(lp322
I13
aI1
aF1.0
aF1.0
aI3
aI9
aF1.0
aI3
aI3
aI10
aI0
aI2
aI11
aI14
aI3
aI32
aI32
aa(lp323
I13
aI1
aF1.0
aF1.0
aI3
aI10
aF1.0
aI3
aI3
aI10
aI0
aI2
aI9
aI12
aI3
aI31
aI31
aa(lp324
I13
aI1
aF1.0
aF1.0
aI3
aI11
aF1.0
aI3
aI3
aI10
aI0
aI2
aI11
aI12
aI3
aI32
aI32
aa(lp325
I13
aI1
aF1.0
aF1.0
aI3
aI12
aF1.0
aI3
aI3
aI10
aI0
aI2
aI11
aI12
aI3
aI33
aI33
aa(lp326
I13
aI0
aF1.0
aF1.0
aI3
aI13
aF1.0
aI3
aI3
aI10
aI0
aI2
aI13
aI0
aI3
aI34
aI34
aa(lp327
I13
aI0
aF1.0
aF1.0
aI3
aI14
aF1.0
aI3
aI3
aI10
aI0
aI2
aI15
aI0
aI3
aI35
aI35
aa(lp328
I13
aI0
aF1.0
aF1.0
aI3
aI13
aF1.0
aI3
aI3
aI10
aI0
aI2
aI15
aI0
aI3
aI34
aI34
aa(lp329
I13
aI0
aF1.0
aF1.0
aI3
aI12
aF1.0
aI3
aI3
aI10
aI0
aI2
aI15
aI0
aI3
aI33
aI33
aa(lp330
I13
aI0
aF1.0
aF1.0
aI3
aI13
aF1.0
aI3
aI3
aI10
aI0
aI2
aI15
aI0
aI3
aI34
aI34
aa(lp331
I13
aI0
aF1.0
aF1.0
aI3
aI14
aF1.0
aI3
aI3
aI10
aI0
aI2
aI15
aI0
aI3
aI35
aI35
aa(lp332
I13
aI0
aF1.0
aF1.0
aI3
aI13
aF1.0
aI3
aI3
aI10
aI0
aI2
aI13
aI0
aI3
aI34
aI34
aa(lp333
I13
aI0
aF1.0
aF1.0
aI3
aI12
aF1.0
aI3
aI3
aI10
aI0
aI2
aI11
aI0
aI3
aI33
aI33
aa(lp334
I13
aI0
aF1.0
aF1.0
aI3
aI13
aF1.0
aI3
aI3
aI10
aI0
aI2
aI13
aI0
aI3
aI34
aI34
aa(lp335
I13
aI0
aF1.0
aF1.0
aI3
aI14
aF1.0
aI3
aI3
aI10
aI0
aI2
aI15
aI0
aI3
aI35
aI35
aa(lp336
I13
aI0
aF1.0
aF1.0
aI3
aI14
aF1.0
aI3
aI3
aI10
aI0
aI2
aI16
aI0
aI3
aI35
aI35
aa(lp337
I13
aI0
aF1.0
aF1.0
aI3
aI13
aF1.0
aI3
aI3
aI10
aI0
aI2
aI16
aI0
aI3
aI34
aI34
aa(lp338
I13
aI0
aF1.0
aF1.0
aI3
aI12
aF1.0
aI3
aI3
aI10
aI0
aI2
aI16
aI0
aI3
aI33
aI33
aa(lp339
I13
aI0
aF1.0
aF1.0
aI3
aI11
aF1.0
aI3
aI3
aI10
aI0
aI2
aI14
aI0
aI3
aI32
aI32
aa(lp340
I13
aI0
aF1.0
aF1.0
aI3
aI10
aF1.0
aI3
aI3
aI10
aI0
aI2
aI12
aI0
aI3
aI31
aI31
aa(lp341
I13
aI0
aF1.0
aF1.0
aI3
aI9
aF1.0
aI3
aI3
aI10
aI0
aI2
aI14
aI0
aI3
aI32
aI32
aa(lp342
I13
aI0
aF1.0
aF1.0
aI3
aI9
aF1.0
aI3
aI3
aI10
aI0
aI2
aI15
aI0
aI3
aI32
aI32
aa(lp343
I13
aI0
aF1.0
aF1.0
aI3
aI10
aF1.0
aI3
aI3
aI10
aI0
aI2
aI15
aI0
aI3
aI31
aI31
aa(lp344
I13
aI0
aF1.0
aF1.0
aI3
aI11
aF1.0
aI3
aI3
aI10
aI0
aI2
aI15
aI0
aI3
aI30
aI30
aa(lp345
I13
aI0
aF1.0
aF1.0
aI3
aI10
aF1.0
aI3
aI3
aI10
aI0
aI2
aI15
aI0
aI3
aI29
aI29
aa(lp346
I13
aI0
aF1.0
aF1.0
aI3
aI9
aF1.0
aI3
aI3
aI10
aI0
aI2
aI15
aI0
aI3
aI28
aI28
aa(lp347
I13
aI0
aF1.0
aF1.0
aI3
aI9
aF1.0
aI3
aI3
aI10
aI0
aI2
aI16
aI0
aI3
aI28
aI28
aa(lp348
I13
aI0
aF1.0
aF1.0
aI3
aI8
aF1.0
aI3
aI3
aI10
aI0
aI2
aI14
aI0
aI3
aI27
aI27
aa(lp349
I13
aI0
aF1.0
aF1.0
aI3
aI7
aF1.0
aI3
aI3
aI10
aI0
aI2
aI12
aI0
aI3
aI26
aI26
aa(lp350
I13
aI1
aF1.0
aF1.0
aI3
aI6
aF1.0
aI3
aI3
aI10
aI0
aI2
aI10
aI11
aI3
aI25
aI25
aa(lp351
I13
aI1
aF1.0
aF1.0
aI3
aI6
aF1.0
aI3
aI3
aI10
aI0
aI2
aI9
aI10
aI3
aI25
aI25
aa(lp352
I13
aI1
aF1.0
aF1.0
aI3
aI6
aF1.0
aI3
aI3
aI10
aI0
aI2
aI8
aI9
aI3
aI25
aI25
aa(lp353
I13
aI1
aF1.0
aF1.0
aI3
aI6
aF1.0
aI3
aI3
aI10
aI0
aI2
aI7
aI9
aI3
aI25
aI25
aa(lp354
I13
aI0
aF1.0
aF1.0
aI3
aI6
aF1.0
aI3
aI3
aI10
aI0
aI2
aI8
aI0
aI3
aI25
aI25
aa(lp355
I13
aI0
aF1.0
aF1.0
aI3
aI6
aF1.0
aI3
aI3
aI10
aI0
aI2
aI9
aI0
aI3
aI25
aI25
aa(lp356
I13
aI0
aF1.0
aF1.0
aI3
aI5
aF1.0
aI3
aI3
aI10
aI0
aI2
aI9
aI0
aI3
aI24
aI24
aa(lp357
I13
aI0
aF1.0
aF1.0
aI3
aI6
aF1.0
aI3
aI3
aI10
aI0
aI2
aI9
aI0
aI3
aI23
aI23
aa(lp358
I13
aI0
aF1.0
aF1.0
aI3
aI7
aF1.0
aI3
aI3
aI10
aI0
aI2
aI9
aI0
aI3
aI22
aI22
aa(lp359
I13
aI0
aF1.0
aF1.0
aI3
aI7
aF1.0
aI3
aI3
aI10
aI0
aI2
aI8
aI0
aI3
aI22
aI22
aa(lp360
I13
aI0
aF1.0
aF1.0
aI3
aI8
aF1.0
aI3
aI3
aI10
aI0
aI2
aI6
aI0
aI3
aI21
aI21
aa(lp361
I13
aI0
aF1.0
aF1.0
aI3
aI9
aF1.0
aI3
aI3
aI10
aI0
aI2
aI4
aI0
aI3
aI20
aI20
aa(lp362
I13
aI0
aF1.0
aF1.0
aI3
aI10
aF1.0
aI3
aI3
aI10
aI0
aI2
aI2
aI0
aI3
aI19
aI19
aa(lp363
I13
aI0
aF1.0
aF1.0
aI3
aI11
aF1.0
aI3
aI3
aI10
aI0
aI2
aI0
aI0
aI3
aI18
aI18
aa(lp364
I13
aI0
aF1.0
aF1.0
aI3
aI10
aF1.0
aI3
aI3
aI10
aI0
aI2
aI0
aI0
aI3
aI19
aI19
aa(lp365
I13
aI0
aF1.0
aF1.0
aI3
aI9
aF1.0
aI3
aI3
aI10
aI0
aI2
aI0
aI0
aI3
aI20
aI20
aa(lp366
I13
aI0
aF1.0
aF1.0
aI3
aI8
aF1.0
aI3
aI3
aI10
aI0
aI2
aI0
aI0
aI3
aI21
aI21
aa(lp367
I13
aI0
aF1.0
aF1.0
aI3
aI9
aF1.0
aI3
aI3
aI10
aI0
aI2
aI2
aI0
aI3
aI20
aI20
aa(lp368
I13
aI0
aF1.0
aF1.0
aI3
aI10
aF1.0
aI3
aI3
aI10
aI0
aI2
aI4
aI0
aI3
aI19
aI19
aa(lp369
I13
aI0
aF1.0
aF1.0
aI3
aI11
aF1.0
aI3
aI3
aI10
aI0
aI2
aI6
aI0
aI3
aI18
aI18
aa(lp370
I13
aI0
aF1.0
aF1.0
aI3
aI12
aF1.0
aI3
aI3
aI10
aI0
aI2
aI4
aI0
aI3
aI17
aI17
aa(lp371
I13
aI0
aF1.0
aF1.0
aI3
aI13
aF1.0
aI3
aI3
aI10
aI0
aI2
aI4
aI0
aI3
aI16
aI16
aa(lp372
I13
aI0
aF1.0
aF1.0
aI3
aI14
aF1.0
aI3
aI3
aI10
aI0
aI2
aI4
aI0
aI3
aI15
aI15
aa(lp373
I13
aI0
aF1.0
aF1.0
aI3
aI15
aF1.0
aI3
aI3
aI10
aI0
aI2
aI4
aI0
aI3
aI14
aI14
aa(lp374
I13
aI0
aF1.0
aF1.0
aI3
aI16
aF1.0
aI3
aI3
aI10
aI0
aI2
aI4
aI0
aI3
aI15
aI15
aa(lp375
I13
aI0
aF1.0
aF1.0
aI3
aI17
aF1.0
aI3
aI3
aI10
aI0
aI1
aI6
aI0
aI3
aI14
aI14
aa(lp376
I13
aI0
aF1.0
aF1.0
aI3
aI16
aF1.0
aI3
aI3
aI10
aI0
aI1
aI8
aI0
aI3
aI13
aI13
aa(lp377
I13
aI0
aF1.0
aF1.0
aI3
aI17
aF1.0
aI3
aI3
aI10
aI0
aI1
aI9
aI0
aI3
aI12
aI12
aa(lp378
I13
aI0
aF1.0
aF1.0
aI3
aI18
aF1.0
aI3
aI3
aI10
aI0
aI1
aI9
aI0
aI3
aI11
aI11
aa(lp379
I13
aI0
aF1.0
aF1.0
aI3
aI19
aF1.0
aI3
aI3
aI10
aI0
aI1
aI9
aI0
aI3
aI10
aI10
aa(lp380
I13
aI0
aF1.0
aF1.0
aI3
aI20
aF1.0
aI3
aI3
aI10
aI0
aI1
aI9
aI0
aI3
aI9
aI9
aa(lp381
I13
aI0
aF1.0
aF1.0
aI3
aI21
aF1.0
aI3
aI3
aI10
aI0
aI1
aI11
aI0
aI3
aI8
aI8
aa(lp382
I13
aI0
aF1.0
aF1.0
aI3
aI22
aF1.0
aI3
aI3
aI10
aI0
aI1
aI11
aI0
aI3
aI7
aI7
aa(lp383
I13
aI1
aF1.0
aF1.0
aI3
aI23
aF1.0
aI3
aI3
aI10
aI0
aI1
aI11
aI22
aI3
aI6
aI6
aa(lp384
I13
aI1
aF1.0
aF1.0
aI3
aI23
aF1.0
aI3
aI3
aI10
aI0
aI1
aI12
aI14
aI3
aI6
aI6
aa(lp385
I13
aI1
aF1.0
aF1.0
aI3
aI24
aF1.0
aI3
aI3
aI10
aI0
aI1
aI14
aI16
aI3
aI5
aI5
aa(lp386
I13
aI1
aF1.0
aF1.0
aI3
aI25
aF1.0
aI3
aI3
aI10
aI0
aI1
aI16
aI18
aI3
aI4
aI4
aa(lp387
I13
aI1
aF1.0
aF1.0
aI3
aI26
aF1.0
aI3
aI3
aI10
aI0
aI1
aI18
aI20
aI3
aI3
aI3
aa(lp388
I13
aI1
aF1.0
aF1.0
aI3
aI27
aF1.0
aI3
aI3
aI10
aI0
aI1
aI20
aI22
aI3
aI2
aI2
aa(lp389
I13
aI1
aF1.0
aF1.0
aI3
aI28
aF1.0
aI3
aI3
aI10
aI0
aI1
aI22
aI24
aI3
aI1
aI1
aa.