(lp0
(lp1
I30
aI0
aF1.0
aF1.0
aI30
aI21
aF1.0
aI30
aI30
aI0
aI38
aI2
aI1
aI0
aI30
aI25
aI45
aa(lp2
I30
aI0
aF1.0
aF1.0
aI30
aI20
aF1.0
aI30
aI30
aI0
aI37
aI2
aI1
aI0
aI30
aI24
aI44
aa(lp3
I30
aI0
aF1.0
aF1.0
aI30
aI21
aF1.0
aI30
aI30
aI0
aI38
aI2
aI1
aI0
aI30
aI25
aI45
aa(lp4
I30
aI0
aF1.0
aF1.0
aI30
aI22
aF1.0
aI30
aI30
aI0
aI39
aI2
aI3
aI0
aI30
aI26
aI46
aa(lp5
I30
aI0
aF1.0
aF1.0
aI30
aI21
aF1.0
aI30
aI30
aI0
aI38
aI2
aI3
aI0
aI30
aI25
aI45
aa(lp6
I30
aI0
aF1.0
aF1.0
aI30
aI20
aF1.0
aI30
aI30
aI0
aI37
aI2
aI3
aI0
aI30
aI24
aI44
aa(lp7
I30
aI0
aF1.0
aF1.0
aI30
aI21
aF1.0
aI30
aI30
aI0
aI38
aI2
aI5
aI0
aI30
aI25
aI45
aa(lp8
I30
aI0
aF1.0
aF1.0
aI30
aI22
aF1.0
aI30
aI30
aI0
aI39
aI2
aI7
aI0
aI30
aI26
aI46
aa(lp9
I30
aI0
aF1.0
aF1.0
aI30
aI22
aF1.0
aI30
aI30
aI0
aI39
aI2
aI8
aI0
aI30
aI26
aI46
aa(lp10
I30
aI0
aF1.0
aF1.0
aI30
aI22
aF1.0
aI30
aI30
aI0
aI39
aI2
aI9
aI0
aI30
aI26
aI46
aa(lp11
I30
aI0
aF1.0
aF1.0
aI30
aI21
aF1.0
aI30
aI30
aI0
aI38
aI2
aI9
aI0
aI30
aI25
aI45
aa(lp12
I30
aI0
aF1.0
aF1.0
aI30
aI20
aF1.0
aI30
aI30
aI0
aI37
aI2
aI9
aI0
aI30
aI24
aI44
aa(lp13
I30
aI0
aF1.0
aF1.0
aI30
aI19
aF1.0
aI30
aI30
aI0
aI36
aI2
aI9
aI0
aI30
aI23
aI43
aa(lp14
I30
aI0
aF1.0
aF1.0
aI30
aI18
aF1.0
aI30
aI30
aI0
aI35
aI2
aI8
aI0
aI30
aI22
aI42
aa(lp15
I30
aI0
aF1.0
aF1.0
aI30
aI17
aF1.0
aI30
aI30
aI0
aI34
aI2
aI8
aI0
aI30
aI21
aI41
aa(lp16
I30
aI0
aF1.0
aF1.0
aI30
aI16
aF1.0
aI30
aI30
aI0
aI33
aI2
aI8
aI0
aI30
aI20
aI40
aa(lp17
I30
aI0
aF1.0
aF1.0
aI30
aI15
aF1.0
aI30
aI30
aI0
aI32
aI2
aI8
aI0
aI30
aI19
aI39
aa(lp18
I30
aI0
aF1.0
aF1.0
aI30
aI14
aF1.0
aI30
aI30
aI0
aI31
aI2
aI8
aI0
aI30
aI18
aI38
aa(lp19
I30
aI0
aF1.0
aF1.0
aI30
aI15
aF1.0
aI30
aI30
aI0
aI32
aI2
aI10
aI0
aI30
aI19
aI39
aa(lp20
I30
aI0
aF1.0
aF1.0
aI30
aI16
aF1.0
aI30
aI30
aI0
aI33
aI2
aI12
aI0
aI30
aI20
aI40
aa(lp21
I30
aI0
aF1.0
aF1.0
aI30
aI17
aF1.0
aI30
aI30
aI0
aI32
aI2
aI14
aI0
aI30
aI21
aI39
aa(lp22
I30
aI1
aF1.0
aF1.0
aI30
aI18
aF1.0
aI30
aI30
aI0
aI31
aI2
aI16
aI24
aI30
aI22
aI38
aa(lp23
I30
aI1
aF1.0
aF1.0
aI30
aI19
aF1.0
aI30
aI30
aI0
aI30
aI2
aI18
aI21
aI30
aI23
aI37
aa(lp24
I30
aI1
aF1.0
aF1.0
aI30
aI20
aF1.0
aI30
aI30
aI0
aI29
aI2
aI20
aI14
aI30
aI22
aI36
aa(lp25
I29
aI1
aF1.0
aF1.0
aI30
aI20
aF1.0
aI30
aI30
aI-1
aI29
aI2
aI19
aI15
aI30
aI22
aI36
aa(lp26
I28
aI1
aF1.0
aF1.0
aI30
aI16
aF1.0
aI30
aI30
aI-2
aI28
aI2
aI17
aI12
aI30
aI21
aI35
aa(lp27
I27
aI1
aF1.0
aF1.0
aI30
aI16
aF1.0
aI30
aI30
aI-3
aI27
aI2
aI15
aI12
aI30
aI20
aI34
aa(lp28
I27
aI1
aF1.0
aF1.0
aI30
aI17
aF1.0
aI30
aI30
aI-3
aI26
aI2
aI14
aI12
aI30
aI19
aI33
aa(lp29
I26
aI1
aF1.0
aF1.0
aI30
aI18
aF1.0
aI30
aI30
aI-4
aI25
aI2
aI13
aI12
aI30
aI18
aI32
aa(lp30
I26
aI1
aF1.0
aF1.0
aI30
aI19
aF1.0
aI30
aI30
aI-4
aI24
aI2
aI11
aI12
aI30
aI17
aI31
aa(lp31
I26
aI1
aF1.0
aF1.0
aI30
aI20
aF1.0
aI30
aI30
aI-4
aI23
aI2
aI11
aI12
aI30
aI16
aI30
aa(lp32
I26
aI1
aF1.0
aF1.0
aI30
aI21
aF1.0
aI30
aI30
aI-4
aI22
aI2
aI11
aI12
aI30
aI15
aI29
aa(lp33
I26
aI1
aF1.0
aF1.0
aI30
aI22
aF1.0
aI30
aI30
aI-4
aI21
aI2
aI11
aI12
aI30
aI14
aI28
aa(lp34
I26
aI1
aF1.0
aF1.0
aI30
aI23
aF1.0
aI30
aI30
aI-4
aI20
aI2
aI9
aI12
aI30
aI13
aI27
aa(lp35
I26
aI1
aF1.0
aF1.0
aI30
aI24
aF1.0
aI30
aI30
aI-4
aI19
aI2
aI9
aI12
aI30
aI12
aI26
aa(lp36
I26
aI1
aF1.0
aF1.0
aI30
aI25
aF1.0
aI30
aI30
aI-4
aI18
aI2
aI9
aI12
aI30
aI11
aI25
aa(lp37
I25
aI1
aF1.0
aF1.0
aI30
aI24
aF1.0
aI30
aI30
aI-5
aI17
aI2
aI9
aI12
aI30
aI10
aI24
aa(lp38
I25
aI1
aF1.0
aF1.0
aI30
aI23
aF1.0
aI30
aI30
aI-5
aI16
aI2
aI9
aI12
aI30
aI9
aI23
aa(lp39
I25
aI1
aF1.0
aF1.0
aI30
aI24
aF1.0
aI30
aI30
aI-5
aI15
aI2
aI11
aI14
aI30
aI8
aI22
aa(lp40
I25
aI1
aF1.0
aF1.0
aI30
aI25
aF1.0
aI30
aI30
aI-5
aI14
aI2
aI13
aI16
aI30
aI7
aI21
aa(lp41
I25
aI1
aF1.0
aF1.0
aI30
aI26
aF1.0
aI30
aI30
aI-5
aI13
aI2
aI15
aI18
aI30
aI6
aI20
aa(lp42
I24
aI1
aF1.0
aF1.0
aI30
aI26
aF1.0
aI30
aI30
aI-6
aI12
aI2
aI15
aI18
aI30
aI5
aI19
aa(lp43
I24
aI1
aF1.0
aF1.0
aI30
aI27
aF1.0
aI30
aI30
aI-6
aI11
aI1
aI17
aI18
aI30
aI4
aI18
aa(lp44
I24
aI1
aF1.0
aF1.0
aI30
aI26
aF1.0
aI30
aI30
aI-6
aI10
aI1
aI17
aI18
aI30
aI3
aI17
aa(lp45
I23
aI1
aF1.0
aF1.0
aI30
aI25
aF1.0
aI30
aI30
aI-7
aI11
aI1
aI17
aI18
aI30
aI4
aI18
aa(lp46
I23
aI1
aF1.0
aF1.0
aI30
aI24
aF1.0
aI30
aI30
aI-7
aI10
aI1
aI17
aI18
aI30
aI5
aI17
aa(lp47
I23
aI1
aF1.0
aF1.0
aI30
aI25
aF1.0
aI30
aI30
aI-7
aI9
aI1
aI19
aI20
aI30
aI4
aI16
aa(lp48
I23
aI1
aF1.0
aF1.0
aI30
aI26
aF1.0
aI30
aI30
aI-7
aI8
aI1
aI21
aI22
aI30
aI3
aI15
aa(lp49
I23
aI1
aF1.0
aF1.0
aI30
aI27
aF1.0
aI30
aI30
aI-7
aI7
aI1
aI23
aI24
aI30
aI2
aI14
aa(lp50
I22
aI1
aF1.0
aF1.0
aI30
aI28
aF1.0
aI30
aI30
aI-8
aI6
aI1
aI25
aI26
aI30
aI3
aI13
aa(lp51
I22
aI1
aF1.0
aF1.0
aI30
aI29
aF1.0
aI30
aI30
aI-8
aI7
aI1
aI25
aI27
aI30
aI2
aI14
aa(lp52
I22
aI0
aF1.0
aF1.0
aI30
aI30
aF1.0
aI30
aI30
aI-8
aI8
aI1
aI27
aI0
aI30
aI1
aI15
aa(lp53
I22
aI0
aF1.0
aF1.0
aI30
aI31
aF1.0
aI30
aI30
aI-8
aI9
aI1
aI29
aI0
aI30
aI2
aI16
aa(lp54
I22
aI0
aF1.0
aF1.0
aI30
aI32
aF1.0
aI30
aI30
aI-8
aI10
aI1
aI30
aI0
aI30
aI2
aI17
aa(lp55
I22
aI0
aF1.0
aF1.0
aI30
aI33
aF1.0
aI30
aI30
aI-8
aI11
aI1
aI30
aI0
aI30
aI1
aI18
aa(lp56
I22
aI0
aF1.0
aF1.0
aI29
aI34
aF1.0
aI29
aI29
aI-7
aI12
aI1
aI30
aI0
aI29
aI1
aI19
aa(lp57
I22
aI0
aF1.0
aF1.0
aI29
aI35
aF1.0
aI29
aI29
aI-7
aI13
aI1
aI30
aI0
aI29
aI2
aI20
aa(lp58
I22
aI0
aF1.0
aF1.0
aI29
aI36
aF1.0
aI29
aI29
aI-7
aI14
aI1
aI30
aI0
aI29
aI1
aI21
aa(lp59
I22
aI0
aF1.0
aF1.0
aI28
aI35
aF1.0
aI28
aI28
aI-6
aI13
aI1
aI28
aI0
aI28
aI6
aI20
aa(lp60
I22
aI0
aF1.0
aF1.0
aI28
aI34
aF1.0
aI28
aI28
aI-6
aI12
aI1
aI26
aI0
aI28
aI5
aI19
aa(lp61
I22
aI0
aF1.0
aF1.0
aI28
aI33
aF1.0
aI28
aI28
aI-6
aI11
aI1
aI24
aI0
aI28
aI4
aI18
aa(lp62
I22
aI0
aF1.0
aF1.0
aI28
aI32
aF1.0
aI28
aI28
aI-6
aI10
aI1
aI22
aI0
aI28
aI3
aI17
aa(lp63
I22
aI0
aF1.0
aF1.0
aI28
aI31
aF1.0
aI28
aI28
aI-6
aI9
aI1
aI20
aI0
aI28
aI2
aI16
aa(lp64
I22
aI0
aF1.0
aF1.0
aI28
aI30
aF1.0
aI28
aI28
aI-6
aI8
aI1
aI18
aI0
aI28
aI1
aI15
aa(lp65
I22
aI0
aF1.0
aF1.0
aI27
aI29
aF1.0
aI27
aI27
aI-5
aI9
aI1
aI16
aI0
aI27
aI6
aI16
aa(lp66
I22
aI0
aF1.0
aF1.0
aI27
aI28
aF1.0
aI27
aI27
aI-5
aI8
aI1
aI14
aI0
aI27
aI5
aI15
aa(lp67
I22
aI0
aF1.0
aF1.0
aI27
aI27
aF1.0
aI27
aI27
aI-5
aI9
aI1
aI12
aI0
aI27
aI6
aI16
aa(lp68
I22
aI0
aF1.0
aF1.0
aI27
aI26
aF1.0
aI27
aI27
aI-5
aI10
aI1
aI10
aI0
aI27
aI7
aI17
aa(lp69
I22
aI0
aF1.0
aF1.0
aI27
aI25
aF1.0
aI27
aI27
aI-5
aI11
aI2
aI8
aI0
aI27
aI8
aI18
aa(lp70
I22
aI0
aF1.0
aF1.0
aI27
aI24
aF1.0
aI27
aI27
aI-5
aI12
aI2
aI7
aI0
aI27
aI7
aI19
aa(lp71
I22
aI0
aF1.0
aF1.0
aI27
aI23
aF1.0
aI27
aI27
aI-5
aI11
aI2
aI6
aI0
aI27
aI6
aI18
aa(lp72
I22
aI0
aF1.0
aF1.0
aI27
aI22
aF1.0
aI27
aI27
aI-5
aI12
aI2
aI5
aI0
aI27
aI7
aI19
aa(lp73
I22
aI0
aF1.0
aF1.0
aI27
aI21
aF1.0
aI27
aI27
aI-5
aI13
aI2
aI4
aI0
aI27
aI8
aI20
aa(lp74
I22
aI1
aF1.0
aF1.0
aI27
aI20
aF1.0
aI27
aI27
aI-5
aI14
aI2
aI5
aI7
aI27
aI7
aI21
aa(lp75
I22
aI1
aF1.0
aF1.0
aI27
aI19
aF1.0
aI27
aI27
aI-5
aI15
aI2
aI7
aI6
aI27
aI6
aI22
aa(lp76
I22
aI1
aF1.0
aF1.0
aI27
aI18
aF1.0
aI27
aI27
aI-5
aI16
aI2
aI9
aI7
aI27
aI5
aI23
aa(lp77
I22
aI1
aF1.0
aF1.0
aI27
aI17
aF1.0
aI27
aI27
aI-5
aI17
aI2
aI9
aI0
aI27
aI4
aI24
aa(lp78
I22
aI1
aF1.0
aF1.0
aI27
aI18
aF1.0
aI27
aI27
aI-5
aI16
aI1
aI9
aI14
aI27
aI3
aI23
aa(lp79
I22
aI1
aF1.0
aF1.0
aI27
aI19
aF1.0
aI27
aI27
aI-5
aI15
aI1
aI11
aI16
aI27
aI2
aI22
aa(lp80
I22
aI1
aF1.0
aF1.0
aI27
aI20
aF1.0
aI27
aI27
aI-5
aI14
aI1
aI13
aI18
aI27
aI1
aI21
aa(lp81
I21
aI1
aF1.0
aF1.0
aI26
aI21
aF1.0
aI26
aI26
aI-5
aI15
aI1
aI15
aI20
aI26
aI2
aI22
aa(lp82
I20
aI1
aF1.0
aF1.0
aI26
aI21
aF1.0
aI26
aI26
aI-6
aI14
aI1
aI17
aI22
aI26
aI1
aI23
aa(lp83
I20
aI1
aF1.0
aF1.0
aI25
aI22
aF1.0
aI25
aI25
aI-5
aI13
aI1
aI19
aI22
aI25
aI1
aI24
aa(lp84
I20
aI1
aF1.0
aF1.0
aI25
aI21
aF1.0
aI25
aI25
aI-5
aI14
aI1
aI20
aI22
aI25
aI1
aI25
aa(lp85
I20
aI1
aF1.0
aF1.0
aI25
aI21
aF1.0
aI25
aI25
aI-5
aI14
aI1
aI20
aI21
aI25
aI1
aI25
aa(lp86
I20
aI1
aF1.0
aF1.0
aI25
aI21
aF1.0
aI25
aI25
aI-5
aI14
aI1
aI20
aI21
aI25
aI1
aI25
aa(lp87
I20
aI1
aF1.0
aF1.0
aI25
aI21
aF1.0
aI25
aI25
aI-5
aI14
aI1
aI20
aI21
aI25
aI1
aI25
aa(lp88
I20
aI1
aF1.0
aF1.0
aI24
aI20
aF1.0
aI24
aI24
aI-4
aI13
aI1
aI21
aI22
aI24
aI1
aI25
aa(lp89
I20
aI1
aF1.0
aF1.0
aI23
aI21
aF1.0
aI23
aI23
aI-3
aI12
aI1
aI20
aI21
aI23
aI5
aI25
aa(lp90
I20
aI1
aF1.0
aF1.0
aI23
aI22
aF1.0
aI23
aI23
aI-3
aI11
aI1
aI21
aI22
aI23
aI4
aI26
aa(lp91
I20
aI1
aF1.0
aF1.0
aI23
aI23
aF1.0
aI23
aI23
aI-3
aI10
aI1
aI22
aI23
aI23
aI3
aI27
aa(lp92
I20
aI1
aF1.0
aF1.0
aI23
aI24
aF1.0
aI23
aI23
aI-3
aI9
aI1
aI23
aI24
aI23
aI2
aI26
aa(lp93
I20
aI1
aF1.0
aF1.0
aI23
aI25
aF1.0
aI23
aI23
aI-3
aI8
aI1
aI24
aI25
aI23
aI1
aI25
aa(lp94
I20
aI1
aF1.0
aF1.0
aI22
aI26
aF1.0
aI22
aI22
aI-2
aI7
aI1
aI25
aI26
aI22
aI2
aI24
aa(lp95
I20
aI1
aF1.0
aF1.0
aI22
aI27
aF1.0
aI22
aI22
aI-2
aI6
aI1
aI26
aI27
aI22
aI3
aI23
aa(lp96
I20
aI1
aF1.0
aF1.0
aI22
aI26
aF1.0
aI22
aI22
aI-2
aI7
aI1
aI25
aI26
aI22
aI2
aI24
aa(lp97
I20
aI1
aF1.0
aF1.0
aI22
aI25
aF1.0
aI22
aI22
aI-2
aI8
aI1
aI24
aI25
aI22
aI1
aI25
aa(lp98
I20
aI1
aF1.0
aF1.0
aI21
aI26
aF1.0
aI21
aI21
aI-1
aI9
aI1
aI25
aI26
aI21
aI9
aI26
aa(lp99
I20
aI1
aF1.0
aF1.0
aI21
aI25
aF1.0
aI21
aI21
aI-1
aI8
aI1
aI24
aI25
aI21
aI8
aI25
aa(lp100
I20
aI1
aF1.0
aF1.0
aI21
aI26
aF1.0
aI21
aI21
aI-1
aI7
aI1
aI25
aI26
aI21
aI7
aI24
aa(lp101
I20
aI1
aF1.0
aF1.0
aI21
aI27
aF1.0
aI21
aI21
aI-1
aI6
aI1
aI26
aI27
aI21
aI6
aI23
aa(lp102
I20
aI1
aF1.0
aF1.0
aI21
aI28
aF1.0
aI21
aI21
aI-1
aI5
aI1
aI27
aI28
aI21
aI5
aI22
aa(lp103
I20
aI1
aF1.0
aF1.0
aI21
aI29
aF1.0
aI21
aI21
aI-1
aI4
aI1
aI28
aI29
aI21
aI4
aI21
aa(lp104
I20
aI1
aF1.0
aF1.0
aI21
aI30
aF1.0
aI21
aI21
aI-1
aI3
aI1
aI29
aI30
aI21
aI3
aI20
aa(lp105
I20
aI1
aF1.0
aF1.0
aI21
aI31
aF1.0
aI21
aI21
aI-1
aI4
aI1
aI30
aI31
aI21
aI2
aI21
aa(lp106
I20
aI1
aF1.0
aF1.0
aI21
aI32
aF1.0
aI21
aI21
aI-1
aI5
aI1
aI31
aI32
aI21
aI1
aI22
aa(lp107
I20
aI1
aF1.0
aF1.0
aI20
aI33
aF1.0
aI20
aI20
aI0
aI6
aI1
aI32
aI33
aI20
aI1
aI23
aa(lp108
I20
aI1
aF1.0
aF1.0
aI19
aI34
aF1.0
aI19
aI19
aI1
aI7
aI1
aI31
aI32
aI19
aI7
aI20
aa(lp109
I20
aI1
aF1.0
aF1.0
aI19
aI35
aF1.0
aI19
aI19
aI1
aI8
aI1
aI30
aI31
aI19
aI6
aI19
aa(lp110
I20
aI1
aF1.0
aF1.0
aI19
aI36
aF1.0
aI19
aI19
aI1
aI9
aI1
aI29
aI30
aI19
aI5
aI18
aa(lp111
I20
aI1
aF1.0
aF1.0
aI19
aI37
aF1.0
aI19
aI19
aI1
aI10
aI1
aI28
aI29
aI19
aI4
aI17
aa(lp112
I20
aI1
aF1.0
aF1.0
aI19
aI38
aF1.0
aI19
aI19
aI1
aI9
aI1
aI27
aI28
aI19
aI3
aI16
aa(lp113
I20
aI1
aF1.0
aF1.0
aI19
aI39
aF1.0
aI19
aI19
aI1
aI8
aI1
aI26
aI27
aI19
aI2
aI15
aa(lp114
I20
aI1
aF1.0
aF1.0
aI19
aI40
aF1.0
aI19
aI19
aI1
aI9
aI1
aI27
aI28
aI19
aI1
aI16
aa(lp115
I20
aI1
aF1.0
aF1.0
aI18
aI41
aF1.0
aI18
aI18
aI2
aI8
aI1
aI26
aI27
aI18
aI3
aI15
aa(lp116
I20
aI1
aF1.0
aF1.0
aI18
aI40
aF1.0
aI18
aI18
aI2
aI7
aI1
aI25
aI26
aI18
aI2
aI14
aa(lp117
I20
aI1
aF1.0
aF1.0
aI18
aI39
aF1.0
aI18
aI18
aI2
aI6
aI1
aI24
aI25
aI18
aI1
aI13
aa(lp118
I20
aI1
aF1.0
aF1.0
aI17
aI38
aF1.0
aI17
aI17
aI3
aI5
aI1
aI23
aI24
aI17
aI1
aI13
aa(lp119
I20
aI1
aF1.0
aF1.0
aI16
aI39
aF1.0
aI16
aI16
aI4
aI6
aI1
aI22
aI23
aI16
aI1
aI12
aa(lp120
I20
aI1
aF1.0
aF1.0
aI15
aI38
aF1.0
aI15
aI15
aI5
aI5
aI1
aI21
aI22
aI15
aI3
aI11
aa(lp121
I20
aI1
aF1.0
aF1.0
aI15
aI37
aF1.0
aI15
aI15
aI5
aI4
aI1
aI20
aI21
aI15
aI2
aI10
aa(lp122
I20
aI1
aF1.0
aF1.0
aI15
aI36
aF1.0
aI15
aI15
aI5
aI3
aI1
aI19
aI20
aI15
aI1
aI9
aa(lp123
I20
aI1
aF1.0
aF1.0
aI14
aI37
aF1.0
aI14
aI14
aI6
aI4
aI1
aI20
aI21
aI14
aI5
aI10
aa(lp124
I20
aI1
aF1.0
aF1.0
aI14
aI37
aF1.0
aI14
aI14
aI6
aI4
aI1
aI20
aI21
aI14
aI5
aI10
aa(lp125
I20
aI1
aF1.0
aF1.0
aI14
aI37
aF1.0
aI14
aI14
aI6
aI4
aI1
aI20
aI21
aI14
aI5
aI10
aa(lp126
I20
aI1
aF1.0
aF1.0
aI14
aI36
aF1.0
aI14
aI14
aI6
aI3
aI1
aI19
aI20
aI14
aI4
aI9
aa(lp127
I20
aI1
aF1.0
aF1.0
aI14
aI37
aF1.0
aI14
aI14
aI6
aI4
aI1
aI20
aI21
aI14
aI5
aI10
aa(lp128
I20
aI1
aF1.0
aF1.0
aI14
aI38
aF1.0
aI14
aI14
aI6
aI5
aI1
aI21
aI22
aI14
aI6
aI11
aa(lp129
I20
aI1
aF1.0
aF1.0
aI14
aI39
aF1.0
aI14
aI14
aI6
aI6
aI1
aI22
aI23
aI14
aI5
aI12
aa(lp130
I20
aI1
aF1.0
aF1.0
aI14
aI40
aF1.0
aI14
aI14
aI6
aI7
aI1
aI23
aI24
aI14
aI4
aI13
aa(lp131
I20
aI1
aF1.0
aF1.0
aI14
aI41
aF1.0
aI14
aI14
aI6
aI8
aI1
aI24
aI25
aI14
aI3
aI14
aa(lp132
I20
aI1
aF1.0
aF1.0
aI14
aI42
aF1.0
aI14
aI14
aI6
aI9
aI1
aI25
aI26
aI14
aI2
aI15
aa(lp133
I20
aI1
aF1.0
aF1.0
aI14
aI43
aF1.0
aI14
aI14
aI6
aI10
aI1
aI26
aI27
aI14
aI1
aI16
aa(lp134
I20
aI1
aF1.0
aF1.0
aI13
aI44
aF1.0
aI13
aI13
aI7
aI11
aI1
aI27
aI28
aI13
aI1
aI18
aa(lp135
I20
aI1
aF1.0
aF1.0
aI12
aI45
aF1.0
aI12
aI12
aI8
aI12
aI1
aI28
aI29
aI12
aI13
aI20
aa(lp136
I20
aI1
aF1.0
aF1.0
aI12
aI44
aF1.0
aI12
aI12
aI8
aI11
aI1
aI27
aI28
aI12
aI12
aI19
aa(lp137
I20
aI1
aF1.0
aF1.0
aI12
aI43
aF1.0
aI12
aI12
aI8
aI10
aI1
aI26
aI27
aI12
aI11
aI18
aa(lp138
I20
aI1
aF1.0
aF1.0
aI12
aI42
aF1.0
aI12
aI12
aI8
aI9
aI1
aI25
aI26
aI12
aI10
aI17
aa(lp139
I20
aI1
aF1.0
aF1.0
aI12
aI41
aF1.0
aI12
aI12
aI8
aI8
aI1
aI24
aI25
aI12
aI9
aI16
aa(lp140
I20
aI1
aF1.0
aF1.0
aI12
aI40
aF1.0
aI12
aI12
aI8
aI7
aI1
aI23
aI24
aI12
aI8
aI15
aa(lp141
I20
aI1
aF1.0
aF1.0
aI12
aI39
aF1.0
aI12
aI12
aI8
aI6
aI1
aI22
aI23
aI12
aI7
aI14
aa(lp142
I20
aI1
aF1.0
aF1.0
aI12
aI38
aF1.0
aI12
aI12
aI8
aI5
aI1
aI21
aI22
aI12
aI6
aI13
aa(lp143
I20
aI1
aF1.0
aF1.0
aI12
aI37
aF1.0
aI12
aI12
aI8
aI4
aI1
aI20
aI21
aI12
aI5
aI12
aa(lp144
I20
aI1
aF1.0
aF1.0
aI12
aI36
aF1.0
aI12
aI12
aI8
aI3
aI1
aI19
aI20
aI12
aI4
aI11
aa(lp145
I20
aI1
aF1.0
aF1.0
aI12
aI35
aF1.0
aI12
aI12
aI8
aI2
aI1
aI18
aI19
aI12
aI3
aI10
aa(lp146
I20
aI1
aF1.0
aF1.0
aI12
aI34
aF1.0
aI12
aI12
aI8
aI1
aI1
aI17
aI18
aI12
aI2
aI9
aa(lp147
I20
aI1
aF1.0
aF1.0
aI12
aI33
aF1.0
aI12
aI12
aI8
aI10
aI1
aI16
aI17
aI12
aI1
aI8
aa(lp148
I20
aI1
aF1.0
aF1.0
aI11
aI32
aF1.0
aI11
aI11
aI9
aI11
aI1
aI15
aI16
aI11
aI3
aI9
aa(lp149
I20
aI1
aF1.0
aF1.0
aI11
aI31
aF1.0
aI11
aI11
aI9
aI12
aI1
aI14
aI15
aI11
aI2
aI10
aa(lp150
I20
aI1
aF1.0
aF1.0
aI11
aI30
aF1.0
aI11
aI11
aI9
aI13
aI1
aI13
aI14
aI11
aI1
aI11
aa(lp151
I20
aI1
aF1.0
aF1.0
aI10
aI31
aF1.0
aI10
aI10
aI10
aI12
aI1
aI14
aI15
aI10
aI5
aI21
aa(lp152
I20
aI1
aF1.0
aF1.0
aI10
aI32
aF1.0
aI10
aI10
aI10
aI11
aI1
aI15
aI16
aI10
aI5
aI20
aa(lp153
I20
aI1
aF1.0
aF1.0
aI10
aI33
aF1.0
aI10
aI10
aI10
aI10
aI1
aI16
aI17
aI10
aI4
aI19
aa(lp154
I20
aI1
aF1.0
aF1.0
aI10
aI34
aF1.0
aI10
aI10
aI10
aI11
aI1
aI17
aI18
aI10
aI3
aI20
aa(lp155
I20
aI1
aF1.0
aF1.0
aI10
aI35
aF1.0
aI10
aI10
aI10
aI12
aI1
aI18
aI19
aI10
aI2
aI21
aa(lp156
I20
aI1
aF1.0
aF1.0
aI10
aI36
aF1.0
aI10
aI10
aI10
aI13
aI1
aI19
aI20
aI10
aI1
aI22
aa(lp157
I20
aI1
aF1.0
aF1.0
aI9
aI37
aF1.0
aI9
aI9
aI11
aI14
aI1
aI20
aI21
aI9
aI2
aI22
aa(lp158
I20
aI1
aF1.0
aF1.0
aI9
aI38
aF1.0
aI9
aI9
aI11
aI15
aI1
aI21
aI22
aI9
aI1
aI23
aa(lp159
I20
aI1
aF1.0
aF1.0
aI9
aI39
aF1.0
aI9
aI9
aI11
aI16
aI1
aI22
aI23
aI9
aI1
aI24
aa(lp160
I20
aI1
aF1.0
aF1.0
aI8
aI40
aF1.0
aI8
aI8
aI12
aI17
aI1
aI23
aI24
aI8
aI3
aI25
aa(lp161
I20
aI1
aF1.0
aF1.0
aI8
aI39
aF1.0
aI8
aI8
aI12
aI16
aI1
aI22
aI23
aI8
aI2
aI24
aa(lp162
I20
aI1
aF1.0
aF1.0
aI8
aI38
aF1.0
aI8
aI8
aI12
aI15
aI1
aI21
aI22
aI8
aI1
aI23
aa(lp163
I20
aI1
aF1.0
aF1.0
aI7
aI37
aF1.0
aI7
aI7
aI13
aI14
aI1
aI20
aI21
aI7
aI4
aI23
aa(lp164
I20
aI1
aF1.0
aF1.0
aI7
aI36
aF1.0
aI7
aI7
aI13
aI13
aI1
aI19
aI20
aI7
aI3
aI22
aa(lp165
I20
aI1
aF1.0
aF1.0
aI7
aI37
aF1.0
aI7
aI7
aI13
aI14
aI1
aI20
aI21
aI7
aI2
aI23
aa(lp166
I20
aI1
aF1.0
aF1.0
aI7
aI38
aF1.0
aI7
aI7
aI13
aI15
aI1
aI21
aI22
aI7
aI1
aI24
aa(lp167
I20
aI1
aF1.0
aF1.0
aI6
aI39
aF1.0
aI6
aI6
aI14
aI16
aI1
aI22
aI23
aI6
aI1
aI24
aa(lp168
I20
aI1
aF1.0
aF1.0
aI5
aI40
aF1.0
aI5
aI5
aI15
aI17
aI1
aI23
aI24
aI5
aI14
aI25
aa(lp169
I20
aI1
aF1.0
aF1.0
aI5
aI40
aF1.0
aI5
aI5
aI15
aI17
aI1
aI23
aI24
aI5
aI14
aI25
aa(lp170
I20
aI1
aF1.0
aF1.0
aI5
aI39
aF1.0
aI5
aI5
aI15
aI16
aI1
aI22
aI23
aI5
aI13
aI24
aa(lp171
I20
aI1
aF1.0
aF1.0
aI5
aI38
aF1.0
aI5
aI5
aI15
aI15
aI1
aI21
aI22
aI5
aI12
aI23
aa(lp172
I20
aI1
aF1.0
aF1.0
aI5
aI37
aF1.0
aI5
aI5
aI15
aI14
aI1
aI20
aI21
aI5
aI11
aI22
aa(lp173
I20
aI1
aF1.0
aF1.0
aI5
aI36
aF1.0
aI5
aI5
aI15
aI13
aI1
aI19
aI20
aI5
aI10
aI21
aa(lp174
I20
aI1
aF1.0
aF1.0
aI5
aI35
aF1.0
aI5
aI5
aI15
aI12
aI1
aI18
aI19
aI5
aI9
aI20
aa(lp175
I20
aI1
aF1.0
aF1.0
aI5
aI34
aF1.0
aI5
aI5
aI15
aI11
aI1
aI17
aI18
aI5
aI8
aI19
aa(lp176
I20
aI1
aF1.0
aF1.0
aI5
aI33
aF1.0
aI5
aI5
aI15
aI10
aI1
aI16
aI17
aI5
aI7
aI18
aa(lp177
I20
aI1
aF1.0
aF1.0
aI5
aI32
aF1.0
aI5
aI5
aI15
aI11
aI1
aI15
aI16
aI5
aI6
aI19
aa(lp178
I20
aI1
aF1.0
aF1.0
aI5
aI31
aF1.0
aI5
aI5
aI15
aI12
aI1
aI14
aI15
aI5
aI5
aI20
aa(lp179
I20
aI1
aF1.0
aF1.0
aI5
aI30
aF1.0
aI5
aI5
aI15
aI13
aI1
aI13
aI14
aI5
aI4
aI19
aa(lp180
I20
aI1
aF1.0
aF1.0
aI5
aI29
aF1.0
aI5
aI5
aI15
aI14
aI1
aI12
aI13
aI5
aI3
aI18
aa(lp181
I20
aI1
aF1.0
aF1.0
aI5
aI28
aF1.0
aI5
aI5
aI15
aI15
aI1
aI11
aI12
aI5
aI2
aI17
aa(lp182
I20
aI1
aF1.0
aF1.0
aI5
aI27
aF1.0
aI5
aI5
aI15
aI16
aI1
aI12
aI13
aI5
aI1
aI16
aa(lp183
I20
aI1
aF1.0
aF1.0
aI4
aI26
aF1.0
aI4
aI4
aI16
aI17
aI1
aI13
aI14
aI4
aI16
aI18
aa(lp184
I20
aI1
aF1.0
aF1.0
aI4
aI25
aF1.0
aI4
aI4
aI16
aI18
aI1
aI12
aI13
aI4
aI15
aI17
aa(lp185
I20
aI1
aF1.0
aF1.0
aI4
aI26
aF1.0
aI4
aI4
aI16
aI19
aI1
aI11
aI12
aI4
aI16
aI18
aa(lp186
I20
aI1
aF1.0
aF1.0
aI4
aI25
aF1.0
aI4
aI4
aI16
aI18
aI1
aI12
aI13
aI4
aI15
aI17
aa(lp187
I20
aI1
aF1.0
aF1.0
aI4
aI24
aF1.0
aI4
aI4
aI16
aI19
aI1
aI13
aI14
aI4
aI14
aI16
aa(lp188
I20
aI1
aF1.0
aF1.0
aI4
aI23
aF1.0
aI4
aI4
aI16
aI20
aI1
aI14
aI15
aI4
aI13
aI15
aa(lp189
I20
aI1
aF1.0
aF1.0
aI4
aI24
aF1.0
aI4
aI4
aI16
aI19
aI1
aI15
aI16
aI4
aI12
aI14
aa(lp190
I20
aI1
aF1.0
aF1.0
aI4
aI23
aF1.0
aI4
aI4
aI16
aI18
aI1
aI16
aI17
aI4
aI11
aI13
aa(lp191
I20
aI1
aF1.0
aF1.0
aI4
aI22
aF1.0
aI4
aI4
aI16
aI17
aI1
aI17
aI18
aI4
aI10
aI12
aa(lp192
I20
aI1
aF1.0
aF1.0
aI4
aI21
aF1.0
aI4
aI4
aI16
aI16
aI1
aI18
aI19
aI4
aI9
aI11
aa(lp193
I20
aI1
aF1.0
aF1.0
aI4
aI21
aF1.0
aI4
aI4
aI16
aI16
aI1
aI18
aI19
aI4
aI9
aI11
aa(lp194
I20
aI1
aF1.0
aF1.0
aI4
aI20
aF1.0
aI4
aI4
aI16
aI15
aI1
aI17
aI18
aI4
aI8
aI10
aa(lp195
I20
aI1
aF1.0
aF1.0
aI4
aI21
aF1.0
aI4
aI4
aI16
aI14
aI1
aI18
aI19
aI4
aI7
aI9
aa(lp196
I20
aI1
aF1.0
aF1.0
aI4
aI22
aF1.0
aI4
aI4
aI16
aI13
aI1
aI19
aI20
aI4
aI6
aI8
aa(lp197
I20
aI1
aF1.0
aF1.0
aI4
aI21
aF1.0
aI4
aI4
aI16
aI12
aI1
aI20
aI21
aI4
aI5
aI7
aa(lp198
I20
aI1
aF1.0
aF1.0
aI4
aI20
aF1.0
aI4
aI4
aI16
aI13
aI1
aI21
aI22
aI4
aI4
aI8
aa(lp199
I20
aI1
aF1.0
aF1.0
aI4
aI21
aF1.0
aI4
aI4
aI16
aI14
aI1
aI22
aI23
aI4
aI3
aI9
aa(lp200
I20
aI1
aF1.0
aF1.0
aI4
aI22
aF1.0
aI4
aI4
aI16
aI15
aI1
aI23
aI24
aI4
aI2
aI10
aa(lp201
I20
aI1
aF1.0
aF1.0
aI4
aI23
aF1.0
aI4
aI4
aI16
aI16
aI1
aI24
aI25
aI4
aI1
aI11
aa(lp202
I20
aI1
aF1.0
aF1.0
aI3
aI24
aF1.0
aI3
aI3
aI17
aI17
aI1
aI25
aI26
aI3
aI1
aI14
aa.