(lp0
(lp1
I30
aI0
aF1.0
aF1.0
aI30
aI18
aF1.0
aI30
aI30
aI0
aI39
aI2
aI1
aI0
aI30
aI34
aI40
aa(lp2
I30
aI0
aF1.0
aF1.0
aI30
aI18
aF1.0
aI30
aI30
aI0
aI39
aI2
aI2
aI0
aI30
aI34
aI40
aa(lp3
I30
aI0
aF1.0
aF1.0
aI30
aI18
aF1.0
aI30
aI30
aI0
aI39
aI2
aI3
aI0
aI30
aI34
aI40
aa(lp4
I30
aI0
aF1.0
aF1.0
aI30
aI17
aF1.0
aI30
aI30
aI0
aI38
aI2
aI3
aI0
aI30
aI33
aI39
aa(lp5
I30
aI0
aF1.0
aF1.0
aI30
aI17
aF1.0
aI30
aI30
aI0
aI38
aI2
aI4
aI0
aI30
aI33
aI39
aa(lp6
I30
aI0
aF1.0
aF1.0
aI30
aI17
aF1.0
aI30
aI30
aI0
aI38
aI2
aI5
aI0
aI30
aI33
aI39
aa(lp7
I30
aI0
aF1.0
aF1.0
aI30
aI16
aF1.0
aI30
aI30
aI0
aI37
aI2
aI5
aI0
aI30
aI32
aI38
aa(lp8
I30
aI0
aF1.0
aF1.0
aI30
aI15
aF1.0
aI30
aI30
aI0
aI36
aI2
aI5
aI0
aI30
aI31
aI37
aa(lp9
I30
aI0
aF1.0
aF1.0
aI30
aI14
aF1.0
aI30
aI30
aI0
aI35
aI2
aI4
aI0
aI30
aI30
aI36
aa(lp10
I30
aI0
aF1.0
aF1.0
aI30
aI13
aF1.0
aI30
aI30
aI0
aI34
aI2
aI4
aI0
aI30
aI29
aI35
aa(lp11
I30
aI0
aF1.0
aF1.0
aI30
aI12
aF1.0
aI30
aI30
aI0
aI33
aI2
aI4
aI0
aI30
aI28
aI34
aa(lp12
I30
aI0
aF1.0
aF1.0
aI30
aI11
aF1.0
aI30
aI30
aI0
aI32
aI2
aI4
aI0
aI30
aI27
aI33
aa(lp13
I30
aI0
aF1.0
aF1.0
aI30
aI10
aF1.0
aI30
aI30
aI0
aI31
aI2
aI4
aI0
aI30
aI26
aI32
aa(lp14
I30
aI0
aF1.0
aF1.0
aI30
aI10
aF1.0
aI30
aI30
aI0
aI31
aI2
aI5
aI0
aI30
aI26
aI32
aa(lp15
I30
aI0
aF1.0
aF1.0
aI30
aI10
aF1.0
aI30
aI30
aI0
aI31
aI2
aI6
aI0
aI30
aI26
aI32
aa(lp16
I30
aI0
aF1.0
aF1.0
aI30
aI9
aF1.0
aI30
aI30
aI0
aI30
aI2
aI6
aI0
aI30
aI25
aI31
aa(lp17
I30
aI0
aF1.0
aF1.0
aI30
aI8
aF1.0
aI30
aI30
aI0
aI29
aI2
aI6
aI0
aI30
aI24
aI30
aa(lp18
I30
aI0
aF1.0
aF1.0
aI30
aI7
aF1.0
aI30
aI30
aI0
aI28
aI2
aI6
aI0
aI30
aI23
aI29
aa(lp19
I30
aI0
aF1.0
aF1.0
aI30
aI6
aF1.0
aI30
aI30
aI0
aI27
aI2
aI6
aI0
aI30
aI22
aI28
aa(lp20
I30
aI0
aF1.0
aF1.0
aI30
aI5
aF1.0
aI30
aI30
aI0
aI26
aI2
aI6
aI0
aI30
aI21
aI27
aa(lp21
I30
aI0
aF1.0
aF1.0
aI30
aI4
aF1.0
aI30
aI30
aI0
aI25
aI2
aI6
aI0
aI30
aI20
aI26
aa(lp22
I30
aI0
aF1.0
aF1.0
aI30
aI3
aF1.0
aI30
aI30
aI0
aI24
aI2
aI6
aI0
aI30
aI19
aI25
aa(lp23
I30
aI0
aF1.0
aF1.0
aI30
aI2
aF1.0
aI30
aI30
aI0
aI23
aI2
aI6
aI0
aI30
aI18
aI24
aa(lp24
I30
aI0
aF1.0
aF1.0
aI30
aI1
aF1.0
aI30
aI30
aI0
aI22
aI2
aI6
aI0
aI30
aI17
aI23
aa(lp25
I30
aI0
aF1.0
aF1.0
aI30
aI0
aF1.0
aI30
aI30
aI0
aI21
aI2
aI4
aI0
aI30
aI16
aI22
aa(lp26
I30
aI0
aF1.0
aF1.0
aI30
aI1
aF1.0
aI30
aI30
aI0
aI20
aI2
aI2
aI0
aI30
aI15
aI21
aa(lp27
I30
aI0
aF1.0
aF1.0
aI30
aI2
aF1.0
aI30
aI30
aI0
aI19
aI2
aI0
aI0
aI30
aI14
aI20
aa(lp28
I30
aI0
aF1.0
aF1.0
aI30
aI3
aF1.0
aI30
aI30
aI0
aI20
aI2
aI2
aI0
aI30
aI15
aI21
aa(lp29
I30
aI1
aF1.0
aF1.0
aI30
aI4
aF1.0
aI30
aI30
aI0
aI21
aI2
aI4
aI17
aI30
aI16
aI22
aa(lp30
I30
aI1
aF1.0
aF1.0
aI30
aI3
aF1.0
aI30
aI30
aI0
aI20
aI2
aI4
aI15
aI30
aI15
aI21
aa(lp31
I30
aI1
aF1.0
aF1.0
aI30
aI2
aF1.0
aI30
aI30
aI0
aI19
aI2
aI4
aI22
aI30
aI14
aI20
aa(lp32
I30
aI1
aF1.0
aF1.0
aI30
aI3
aF1.0
aI30
aI30
aI0
aI18
aI2
aI4
aI23
aI30
aI13
aI19
aa(lp33
I30
aI1
aF1.0
aF1.0
aI30
aI4
aF1.0
aI30
aI30
aI0
aI17
aI2
aI4
aI9
aI30
aI12
aI18
aa(lp34
I29
aI1
aF1.0
aF1.0
aI30
aI5
aF1.0
aI30
aI30
aI-1
aI16
aI2
aI4
aI6
aI30
aI11
aI17
aa(lp35
I29
aI1
aF1.0
aF1.0
aI30
aI6
aF1.0
aI30
aI30
aI-1
aI15
aI2
aI4
aI9
aI30
aI10
aI16
aa(lp36
I29
aI1
aF1.0
aF1.0
aI30
aI7
aF1.0
aI30
aI30
aI-1
aI14
aI2
aI4
aI7
aI30
aI9
aI15
aa(lp37
I29
aI1
aF1.0
aF1.0
aI30
aI7
aF1.0
aI30
aI30
aI-1
aI14
aI2
aI5
aI6
aI30
aI9
aI15
aa(lp38
I28
aI1
aF1.0
aF1.0
aI30
aI7
aF1.0
aI30
aI30
aI-2
aI14
aI2
aI6
aI5
aI30
aI9
aI15
aa(lp39
I28
aI1
aF1.0
aF1.0
aI30
aI7
aF1.0
aI30
aI30
aI-2
aI14
aI2
aI5
aI4
aI30
aI9
aI15
aa(lp40
I28
aI1
aF1.0
aF1.0
aI30
aI8
aF1.0
aI30
aI30
aI-2
aI13
aI2
aI5
aI4
aI30
aI8
aI14
aa(lp41
I28
aI1
aF1.0
aF1.0
aI30
aI9
aF1.0
aI30
aI30
aI-2
aI12
aI2
aI5
aI4
aI30
aI7
aI13
aa(lp42
I28
aI1
aF1.0
aF1.0
aI30
aI10
aF1.0
aI30
aI30
aI-2
aI11
aI1
aI5
aI4
aI30
aI6
aI12
aa(lp43
I28
aI1
aF1.0
aF1.0
aI30
aI11
aF1.0
aI30
aI30
aI-2
aI10
aI1
aI5
aI4
aI30
aI7
aI11
aa(lp44
I28
aI1
aF1.0
aF1.0
aI30
aI12
aF1.0
aI30
aI30
aI-2
aI9
aI1
aI5
aI6
aI30
aI6
aI10
aa(lp45
I28
aI1
aF1.0
aF1.0
aI30
aI13
aF1.0
aI30
aI30
aI-2
aI8
aI1
aI7
aI8
aI30
aI5
aI9
aa(lp46
I28
aI1
aF1.0
aF1.0
aI30
aI14
aF1.0
aI30
aI30
aI-2
aI7
aI1
aI9
aI10
aI30
aI4
aI8
aa(lp47
I28
aI1
aF1.0
aF1.0
aI30
aI15
aF1.0
aI30
aI30
aI-2
aI6
aI1
aI11
aI12
aI30
aI3
aI7
aa(lp48
I27
aI1
aF1.0
aF1.0
aI30
aI17
aF1.0
aI30
aI30
aI-3
aI5
aI1
aI13
aI14
aI30
aI2
aI6
aa(lp49
I27
aI1
aF1.0
aF1.0
aI30
aI18
aF1.0
aI30
aI30
aI-3
aI6
aI1
aI15
aI16
aI30
aI1
aI7
aa(lp50
I27
aI1
aF1.0
aF1.0
aI29
aI19
aF1.0
aI29
aI29
aI-2
aI7
aI1
aI16
aI9
aI29
aI4
aI19
aa(lp51
I27
aI1
aF1.0
aF1.0
aI29
aI20
aF1.0
aI29
aI29
aI-2
aI8
aI1
aI16
aI12
aI29
aI3
aI20
aa(lp52
I26
aI1
aF1.0
aF1.0
aI29
aI18
aF1.0
aI29
aI29
aI-3
aI9
aI1
aI14
aI11
aI29
aI2
aI21
aa(lp53
I25
aI1
aF1.0
aF1.0
aI29
aI17
aF1.0
aI29
aI29
aI-4
aI10
aI1
aI14
aI18
aI29
aI3
aI22
aa(lp54
I25
aI1
aF1.0
aF1.0
aI29
aI16
aF1.0
aI29
aI29
aI-4
aI11
aI1
aI14
aI16
aI29
aI4
aI23
aa(lp55
I25
aI1
aF1.0
aF1.0
aI29
aI17
aF1.0
aI29
aI29
aI-4
aI10
aI1
aI16
aI16
aI29
aI3
aI22
aa(lp56
I25
aI1
aF1.0
aF1.0
aI29
aI18
aF1.0
aI29
aI29
aI-4
aI9
aI1
aI17
aI16
aI29
aI2
aI21
aa(lp57
I25
aI1
aF1.0
aF1.0
aI29
aI19
aF1.0
aI29
aI29
aI-4
aI10
aI1
aI17
aI18
aI29
aI1
aI22
aa(lp58
I25
aI1
aF1.0
aF1.0
aI28
aI20
aF1.0
aI28
aI28
aI-3
aI11
aI1
aI17
aI19
aI28
aI1
aI22
aa(lp59
I25
aI0
aF1.0
aF1.0
aI28
aI20
aF1.0
aI28
aI28
aI-3
aI11
aI1
aI18
aI0
aI28
aI1
aI22
aa(lp60
I25
aI0
aF1.0
aF1.0
aI28
aI20
aF1.0
aI28
aI28
aI-3
aI11
aI1
aI19
aI0
aI28
aI1
aI22
aa(lp61
I25
aI0
aF1.0
aF1.0
aI28
aI20
aF1.0
aI28
aI28
aI-3
aI11
aI1
aI19
aI0
aI28
aI1
aI22
aa(lp62
I25
aI0
aF1.0
aF1.0
aI28
aI20
aF1.0
aI28
aI28
aI-3
aI11
aI1
aI18
aI0
aI28
aI1
aI22
aa(lp63
I25
aI0
aF1.0
aF1.0
aI28
aI20
aF1.0
aI28
aI28
aI-3
aI11
aI1
aI17
aI0
aI28
aI1
aI22
aa(lp64
I25
aI0
aF1.0
aF1.0
aI27
aI21
aF1.0
aI27
aI27
aI-2
aI12
aI1
aI17
aI0
aI27
aI13
aI23
aa(lp65
I25
aI0
aF1.0
aF1.0
aI27
aI21
aF1.0
aI27
aI27
aI-2
aI12
aI0
aI16
aI0
aI27
aI13
aI23
aa(lp66
I25
aI0
aF1.0
aF1.0
aI27
aI20
aF1.0
aI27
aI27
aI-2
aI11
aI0
aI16
aI0
aI27
aI12
aI22
aa(lp67
I25
aI0
aF1.0
aF1.0
aI27
aI19
aF1.0
aI27
aI27
aI-2
aI10
aI0
aI16
aI0
aI27
aI11
aI21
aa(lp68
I25
aI0
aF1.0
aF1.0
aI27
aI18
aF1.0
aI27
aI27
aI-2
aI9
aI0
aI14
aI0
aI27
aI10
aI20
aa(lp69
I25
aI0
aF1.0
aF1.0
aI27
aI17
aF1.0
aI27
aI27
aI-2
aI10
aI0
aI16
aI0
aI27
aI11
aI21
aa(lp70
I25
aI0
aF1.0
aF1.0
aI26
aI16
aF1.0
aI26
aI26
aI-1
aI11
aI0
aI16
aI0
aI26
aI12
aI22
aa(lp71
I25
aI0
aF1.0
aF1.0
aI26
aI15
aF1.0
aI26
aI26
aI-1
aI12
aI0
aI16
aI0
aI26
aI11
aI23
aa(lp72
I25
aI0
aF1.0
aF1.0
aI26
aI14
aF1.0
aI26
aI26
aI-1
aI13
aI0
aI16
aI0
aI26
aI10
aI22
aa(lp73
I25
aI0
aF1.0
aF1.0
aI26
aI13
aF1.0
aI26
aI26
aI-1
aI14
aI1
aI18
aI0
aI26
aI11
aI23
aa(lp74
I25
aI0
aF1.0
aF1.0
aI26
aI14
aF1.0
aI26
aI26
aI-1
aI15
aI1
aI20
aI0
aI26
aI12
aI24
aa(lp75
I25
aI0
aF1.0
aF1.0
aI26
aI13
aF1.0
aI26
aI26
aI-1
aI16
aI1
aI22
aI0
aI26
aI13
aI25
aa(lp76
I25
aI0
aF1.0
aF1.0
aI26
aI12
aF1.0
aI26
aI26
aI-1
aI17
aI1
aI22
aI0
aI26
aI14
aI26
aa(lp77
I25
aI0
aF1.0
aF1.0
aI26
aI13
aF1.0
aI26
aI26
aI-1
aI16
aI1
aI20
aI0
aI26
aI13
aI25
aa(lp78
I25
aI0
aF1.0
aF1.0
aI26
aI14
aF1.0
aI26
aI26
aI-1
aI15
aI1
aI18
aI0
aI26
aI12
aI24
aa(lp79
I25
aI0
aF1.0
aF1.0
aI26
aI13
aF1.0
aI26
aI26
aI-1
aI14
aI1
aI16
aI0
aI26
aI11
aI23
aa(lp80
I25
aI0
aF1.0
aF1.0
aI26
aI12
aF1.0
aI26
aI26
aI-1
aI13
aI1
aI14
aI0
aI26
aI10
aI22
aa(lp81
I25
aI0
aF1.0
aF1.0
aI26
aI11
aF1.0
aI26
aI26
aI-1
aI12
aI1
aI12
aI0
aI26
aI9
aI21
aa(lp82
I25
aI0
aF1.0
aF1.0
aI26
aI12
aF1.0
aI26
aI26
aI-1
aI13
aI1
aI12
aI0
aI26
aI10
aI22
aa(lp83
I25
aI0
aF1.0
aF1.0
aI26
aI13
aF1.0
aI26
aI26
aI-1
aI14
aI1
aI12
aI0
aI26
aI11
aI23
aa(lp84
I25
aI0
aF1.0
aF1.0
aI26
aI14
aF1.0
aI26
aI26
aI-1
aI13
aI1
aI12
aI0
aI26
aI12
aI24
aa(lp85
I25
aI0
aF1.0
aF1.0
aI26
aI13
aF1.0
aI26
aI26
aI-1
aI14
aI1
aI10
aI0
aI26
aI11
aI23
aa(lp86
I25
aI0
aF1.0
aF1.0
aI26
aI12
aF1.0
aI26
aI26
aI-1
aI13
aI2
aI8
aI0
aI26
aI10
aI22
aa(lp87
I25
aI1
aF1.0
aF1.0
aI26
aI11
aF1.0
aI26
aI26
aI-1
aI12
aI2
aI6
aI1
aI26
aI9
aI21
aa(lp88
I25
aI0
aF1.0
aF1.0
aI26
aI10
aF1.0
aI26
aI26
aI-1
aI11
aI2
aI4
aI0
aI26
aI8
aI20
aa(lp89
I25
aI0
aF1.0
aF1.0
aI26
aI9
aF1.0
aI26
aI26
aI-1
aI12
aI2
aI2
aI0
aI26
aI7
aI19
aa(lp90
I25
aI0
aF1.0
aF1.0
aI26
aI10
aF1.0
aI26
aI26
aI-1
aI11
aI1
aI2
aI0
aI26
aI6
aI18
aa(lp91
I25
aI0
aF1.0
aF1.0
aI26
aI10
aF1.0
aI26
aI26
aI-1
aI11
aI1
aI1
aI0
aI26
aI6
aI18
aa(lp92
I25
aI0
aF1.0
aF1.0
aI26
aI10
aF1.0
aI26
aI26
aI-1
aI11
aI1
aI2
aI0
aI26
aI6
aI18
aa(lp93
I25
aI0
aF1.0
aF1.0
aI26
aI10
aF1.0
aI26
aI26
aI-1
aI11
aI1
aI3
aI0
aI26
aI6
aI18
aa(lp94
I25
aI0
aF1.0
aF1.0
aI26
aI10
aF1.0
aI26
aI26
aI-1
aI11
aI1
aI4
aI0
aI26
aI6
aI18
aa(lp95
I25
aI0
aF1.0
aF1.0
aI26
aI10
aF1.0
aI26
aI26
aI-1
aI11
aI1
aI5
aI0
aI26
aI6
aI18
aa(lp96
I25
aI0
aF1.0
aF1.0
aI26
aI11
aF1.0
aI26
aI26
aI-1
aI10
aI1
aI5
aI0
aI26
aI7
aI19
aa(lp97
I25
aI0
aF1.0
aF1.0
aI26
aI12
aF1.0
aI26
aI26
aI-1
aI11
aI1
aI5
aI0
aI26
aI8
aI20
aa(lp98
I25
aI0
aF1.0
aF1.0
aI26
aI11
aF1.0
aI26
aI26
aI-1
aI10
aI1
aI7
aI0
aI26
aI7
aI19
aa(lp99
I25
aI0
aF1.0
aF1.0
aI26
aI12
aF1.0
aI26
aI26
aI-1
aI9
aI1
aI9
aI0
aI26
aI6
aI18
aa(lp100
I25
aI0
aF1.0
aF1.0
aI26
aI13
aF1.0
aI26
aI26
aI-1
aI8
aI1
aI9
aI0
aI26
aI5
aI17
aa(lp101
I25
aI0
aF1.0
aF1.0
aI26
aI14
aF1.0
aI26
aI26
aI-1
aI9
aI1
aI9
aI0
aI26
aI4
aI16
aa(lp102
I25
aI0
aF1.0
aF1.0
aI26
aI15
aF1.0
aI26
aI26
aI-1
aI10
aI1
aI9
aI0
aI26
aI3
aI15
aa(lp103
I25
aI0
aF1.0
aF1.0
aI26
aI14
aF1.0
aI26
aI26
aI-1
aI11
aI1
aI9
aI0
aI26
aI2
aI14
aa(lp104
I25
aI0
aF1.0
aF1.0
aI26
aI15
aF1.0
aI26
aI26
aI-1
aI12
aI1
aI9
aI0
aI26
aI1
aI13
aa(lp105
I25
aI0
aF1.0
aF1.0
aI25
aI16
aF1.0
aI25
aI25
aI0
aI13
aI1
aI9
aI0
aI25
aI11
aI12
aa(lp106
I25
aI0
aF1.0
aF1.0
aI25
aI17
aF1.0
aI25
aI25
aI0
aI14
aI1
aI11
aI0
aI25
aI12
aI13
aa(lp107
I25
aI0
aF1.0
aF1.0
aI25
aI17
aF1.0
aI25
aI25
aI0
aI14
aI1
aI12
aI0
aI25
aI12
aI13
aa(lp108
I25
aI0
aF1.0
aF1.0
aI25
aI17
aF1.0
aI25
aI25
aI0
aI14
aI1
aI13
aI0
aI25
aI12
aI13
aa(lp109
I25
aI0
aF1.0
aF1.0
aI25
aI17
aF1.0
aI25
aI25
aI0
aI14
aI1
aI14
aI0
aI25
aI12
aI13
aa(lp110
I25
aI0
aF1.0
aF1.0
aI25
aI16
aF1.0
aI25
aI25
aI0
aI13
aI1
aI12
aI0
aI25
aI11
aI12
aa(lp111
I25
aI0
aF1.0
aF1.0
aI25
aI17
aF1.0
aI25
aI25
aI0
aI12
aI1
aI12
aI0
aI25
aI10
aI11
aa(lp112
I25
aI0
aF1.0
aF1.0
aI25
aI16
aF1.0
aI25
aI25
aI0
aI11
aI1
aI12
aI0
aI25
aI9
aI10
aa(lp113
I25
aI0
aF1.0
aF1.0
aI25
aI15
aF1.0
aI25
aI25
aI0
aI10
aI1
aI12
aI0
aI25
aI10
aI11
aa(lp114
I25
aI0
aF1.0
aF1.0
aI25
aI15
aF1.0
aI25
aI25
aI0
aI10
aI1
aI11
aI0
aI25
aI10
aI11
aa(lp115
I25
aI0
aF1.0
aF1.0
aI25
aI16
aF1.0
aI25
aI25
aI0
aI9
aI1
aI11
aI0
aI25
aI9
aI10
aa(lp116
I25
aI0
aF1.0
aF1.0
aI25
aI17
aF1.0
aI25
aI25
aI0
aI8
aI1
aI11
aI0
aI25
aI8
aI9
aa(lp117
I25
aI1
aF1.0
aF1.0
aI25
aI18
aF1.0
aI25
aI25
aI0
aI7
aI1
aI11
aI13
aI25
aI7
aI8
aa(lp118
I25
aI1
aF1.0
aF1.0
aI25
aI19
aF1.0
aI25
aI25
aI0
aI8
aI1
aI9
aI13
aI25
aI6
aI7
aa(lp119
I25
aI1
aF1.0
aF1.0
aI25
aI18
aF1.0
aI25
aI25
aI0
aI39
aI2
aI29
aI30
aI25
aI40
aI44
aa(lp120
I25
aI1
aF1.0
aF1.0
aI25
aI18
aF1.0
aI25
aI25
aI0
aI39
aI2
aI28
aI29
aI25
aI40
aI44
aa(lp121
I25
aI1
aF1.0
aF1.0
aI25
aI18
aF1.0
aI25
aI25
aI0
aI39
aI2
aI27
aI23
aI25
aI40
aI44
aa(lp122
I25
aI1
aF1.0
aF1.0
aI25
aI18
aF1.0
aI25
aI25
aI0
aI39
aI2
aI26
aI22
aI25
aI40
aI44
aa(lp123
I25
aI1
aF1.0
aF1.0
aI25
aI18
aF1.0
aI25
aI25
aI0
aI39
aI2
aI25
aI21
aI25
aI40
aI44
aa(lp124
I25
aI1
aF1.0
aF1.0
aI25
aI18
aF1.0
aI25
aI25
aI0
aI39
aI2
aI24
aI20
aI25
aI40
aI44
aa(lp125
I25
aI1
aF1.0
aF1.0
aI25
aI18
aF1.0
aI25
aI25
aI0
aI39
aI2
aI23
aI21
aI25
aI40
aI44
aa(lp126
I25
aI1
aF1.0
aF1.0
aI25
aI17
aF1.0
aI25
aI25
aI0
aI38
aI2
aI21
aI21
aI25
aI39
aI43
aa(lp127
I25
aI1
aF1.0
aF1.0
aI25
aI16
aF1.0
aI25
aI25
aI0
aI37
aI2
aI19
aI21
aI25
aI38
aI42
aa(lp128
I24
aI1
aF1.0
aF1.0
aI25
aI15
aF1.0
aI25
aI25
aI-1
aI36
aI2
aI17
aI21
aI25
aI37
aI41
aa(lp129
I23
aI1
aF1.0
aF1.0
aI25
aI27
aF1.0
aI25
aI25
aI-2
aI35
aI2
aI16
aI21
aI25
aI36
aI40
aa(lp130
I23
aI1
aF1.0
aF1.0
aI25
aI26
aF1.0
aI25
aI25
aI-2
aI34
aI2
aI15
aI19
aI25
aI35
aI39
aa(lp131
I23
aI1
aF1.0
aF1.0
aI25
aI25
aF1.0
aI25
aI25
aI-2
aI33
aI2
aI14
aI17
aI25
aI34
aI38
aa(lp132
I23
aI1
aF1.0
aF1.0
aI25
aI24
aF1.0
aI25
aI25
aI-2
aI32
aI2
aI13
aI15
aI25
aI33
aI37
aa(lp133
I23
aI1
aF1.0
aF1.0
aI25
aI23
aF1.0
aI25
aI25
aI-2
aI31
aI2
aI12
aI13
aI25
aI32
aI36
aa(lp134
I23
aI1
aF1.0
aF1.0
aI25
aI22
aF1.0
aI25
aI25
aI-2
aI30
aI2
aI11
aI12
aI25
aI31
aI35
aa(lp135
I23
aI1
aF1.0
aF1.0
aI25
aI21
aF1.0
aI25
aI25
aI-2
aI29
aI2
aI10
aI11
aI25
aI30
aI34
aa(lp136
I23
aI1
aF1.0
aF1.0
aI25
aI22
aF1.0
aI25
aI25
aI-2
aI30
aI2
aI11
aI12
aI25
aI31
aI35
aa(lp137
I23
aI1
aF1.0
aF1.0
aI25
aI21
aF1.0
aI25
aI25
aI-2
aI29
aI2
aI10
aI11
aI25
aI30
aI34
aa(lp138
I23
aI1
aF1.0
aF1.0
aI25
aI20
aF1.0
aI25
aI25
aI-2
aI28
aI2
aI9
aI10
aI25
aI29
aI33
aa(lp139
I23
aI1
aF1.0
aF1.0
aI25
aI19
aF1.0
aI25
aI25
aI-2
aI27
aI2
aI8
aI9
aI25
aI28
aI32
aa(lp140
I23
aI1
aF1.0
aF1.0
aI25
aI18
aF1.0
aI25
aI25
aI-2
aI26
aI2
aI7
aI8
aI25
aI27
aI31
aa(lp141
I23
aI1
aF1.0
aF1.0
aI25
aI17
aF1.0
aI25
aI25
aI-2
aI25
aI2
aI6
aI7
aI25
aI26
aI30
aa(lp142
I23
aI1
aF1.0
aF1.0
aI25
aI16
aF1.0
aI25
aI25
aI-2
aI24
aI2
aI5
aI6
aI25
aI25
aI29
aa(lp143
I23
aI1
aF1.0
aF1.0
aI25
aI15
aF1.0
aI25
aI25
aI-2
aI23
aI2
aI4
aI5
aI25
aI24
aI28
aa(lp144
I23
aI1
aF1.0
aF1.0
aI25
aI16
aF1.0
aI25
aI25
aI-2
aI24
aI2
aI5
aI6
aI25
aI25
aI29
aa(lp145
I23
aI1
aF1.0
aF1.0
aI25
aI16
aF1.0
aI25
aI25
aI-2
aI24
aI2
aI5
aI6
aI25
aI25
aI29
aa(lp146
I23
aI1
aF1.0
aF1.0
aI25
aI16
aF1.0
aI25
aI25
aI-2
aI24
aI2
aI5
aI6
aI25
aI25
aI29
aa(lp147
I23
aI1
aF1.0
aF1.0
aI25
aI16
aF1.0
aI25
aI25
aI-2
aI24
aI2
aI5
aI6
aI25
aI25
aI29
aa(lp148
I23
aI1
aF1.0
aF1.0
aI25
aI16
aF1.0
aI25
aI25
aI-2
aI24
aI2
aI5
aI6
aI25
aI25
aI29
aa(lp149
I23
aI1
aF1.0
aF1.0
aI25
aI16
aF1.0
aI25
aI25
aI-2
aI24
aI2
aI5
aI6
aI25
aI25
aI29
aa(lp150
I23
aI1
aF1.0
aF1.0
aI25
aI17
aF1.0
aI25
aI25
aI-2
aI25
aI2
aI6
aI7
aI25
aI26
aI30
aa(lp151
I23
aI1
aF1.0
aF1.0
aI25
aI16
aF1.0
aI25
aI25
aI-2
aI26
aI2
aI7
aI8
aI25
aI27
aI31
aa(lp152
I23
aI1
aF1.0
aF1.0
aI25
aI15
aF1.0
aI25
aI25
aI-2
aI27
aI2
aI8
aI9
aI25
aI28
aI32
aa(lp153
I23
aI1
aF1.0
aF1.0
aI25
aI14
aF1.0
aI25
aI25
aI-2
aI28
aI2
aI9
aI10
aI25
aI29
aI33
aa(lp154
I23
aI1
aF1.0
aF1.0
aI25
aI13
aF1.0
aI25
aI25
aI-2
aI27
aI2
aI10
aI11
aI25
aI28
aI34
aa(lp155
I23
aI1
aF1.0
aF1.0
aI25
aI12
aF1.0
aI25
aI25
aI-2
aI26
aI2
aI11
aI12
aI25
aI27
aI35
aa(lp156
I23
aI1
aF1.0
aF1.0
aI25
aI12
aF1.0
aI25
aI25
aI-2
aI26
aI2
aI11
aI12
aI25
aI27
aI35
aa(lp157
I23
aI1
aF1.0
aF1.0
aI25
aI12
aF1.0
aI25
aI25
aI-2
aI26
aI2
aI11
aI12
aI25
aI27
aI35
aa(lp158
I23
aI1
aF1.0
aF1.0
aI25
aI12
aF1.0
aI25
aI25
aI-2
aI26
aI2
aI11
aI12
aI25
aI27
aI35
aa(lp159
I23
aI1
aF1.0
aF1.0
aI25
aI12
aF1.0
aI25
aI25
aI-2
aI26
aI2
aI11
aI12
aI25
aI27
aI35
aa(lp160
I23
aI1
aF1.0
aF1.0
aI25
aI12
aF1.0
aI25
aI25
aI-2
aI26
aI2
aI11
aI12
aI25
aI27
aI35
aa(lp161
I23
aI1
aF1.0
aF1.0
aI25
aI12
aF1.0
aI25
aI25
aI-2
aI26
aI2
aI11
aI12
aI25
aI27
aI35
aa(lp162
I23
aI1
aF1.0
aF1.0
aI25
aI12
aF1.0
aI25
aI25
aI-2
aI26
aI2
aI11
aI12
aI25
aI27
aI35
aa(lp163
I23
aI1
aF1.0
aF1.0
aI25
aI11
aF1.0
aI25
aI25
aI-2
aI25
aI2
aI12
aI13
aI25
aI26
aI36
aa(lp164
I23
aI1
aF1.0
aF1.0
aI25
aI10
aF1.0
aI25
aI25
aI-2
aI24
aI2
aI13
aI14
aI25
aI25
aI35
aa(lp165
I23
aI1
aF1.0
aF1.0
aI25
aI9
aF1.0
aI25
aI25
aI-2
aI23
aI2
aI14
aI15
aI25
aI24
aI34
aa(lp166
I23
aI1
aF1.0
aF1.0
aI25
aI10
aF1.0
aI25
aI25
aI-2
aI22
aI2
aI15
aI16
aI25
aI23
aI33
aa(lp167
I23
aI1
aF1.0
aF1.0
aI25
aI9
aF1.0
aI25
aI25
aI-2
aI21
aI2
aI16
aI17
aI25
aI22
aI32
aa(lp168
I23
aI1
aF1.0
aF1.0
aI25
aI8
aF1.0
aI25
aI25
aI-2
aI20
aI2
aI17
aI18
aI25
aI21
aI31
aa(lp169
I23
aI1
aF1.0
aF1.0
aI25
aI7
aF1.0
aI25
aI25
aI-2
aI19
aI2
aI16
aI17
aI25
aI20
aI30
aa(lp170
I23
aI1
aF1.0
aF1.0
aI25
aI6
aF1.0
aI25
aI25
aI-2
aI18
aI2
aI15
aI16
aI25
aI19
aI29
aa(lp171
I23
aI1
aF1.0
aF1.0
aI25
aI5
aF1.0
aI25
aI25
aI-2
aI17
aI2
aI14
aI15
aI25
aI18
aI28
aa(lp172
I23
aI1
aF1.0
aF1.0
aI25
aI4
aF1.0
aI25
aI25
aI-2
aI16
aI2
aI13
aI14
aI25
aI17
aI27
aa(lp173
I23
aI1
aF1.0
aF1.0
aI25
aI5
aF1.0
aI25
aI25
aI-2
aI15
aI2
aI12
aI13
aI25
aI16
aI26
aa(lp174
I23
aI1
aF1.0
aF1.0
aI25
aI6
aF1.0
aI25
aI25
aI-2
aI14
aI2
aI13
aI14
aI25
aI15
aI25
aa(lp175
I23
aI1
aF1.0
aF1.0
aI25
aI7
aF1.0
aI25
aI25
aI-2
aI13
aI2
aI14
aI15
aI25
aI14
aI24
aa(lp176
I23
aI1
aF1.0
aF1.0
aI25
aI8
aF1.0
aI25
aI25
aI-2
aI12
aI2
aI13
aI14
aI25
aI13
aI23
aa(lp177
I23
aI1
aF1.0
aF1.0
aI25
aI9
aF1.0
aI25
aI25
aI-2
aI11
aI1
aI14
aI15
aI25
aI12
aI22
aa(lp178
I23
aI1
aF1.0
aF1.0
aI25
aI8
aF1.0
aI25
aI25
aI-2
aI12
aI1
aI13
aI14
aI25
aI13
aI23
aa(lp179
I23
aI1
aF1.0
aF1.0
aI25
aI7
aF1.0
aI25
aI25
aI-2
aI13
aI1
aI12
aI13
aI25
aI14
aI22
aa(lp180
I23
aI1
aF1.0
aF1.0
aI25
aI8
aF1.0
aI25
aI25
aI-2
aI12
aI1
aI11
aI12
aI25
aI13
aI21
aa(lp181
I23
aI1
aF1.0
aF1.0
aI25
aI7
aF1.0
aI25
aI25
aI-2
aI11
aI1
aI10
aI11
aI25
aI12
aI20
aa(lp182
I23
aI1
aF1.0
aF1.0
aI25
aI8
aF1.0
aI25
aI25
aI-2
aI10
aI1
aI9
aI10
aI25
aI11
aI19
aa(lp183
I23
aI1
aF1.0
aF1.0
aI25
aI9
aF1.0
aI25
aI25
aI-2
aI11
aI1
aI8
aI9
aI25
aI12
aI18
aa(lp184
I23
aI1
aF1.0
aF1.0
aI25
aI10
aF1.0
aI25
aI25
aI-2
aI12
aI1
aI9
aI10
aI25
aI13
aI17
aa(lp185
I23
aI1
aF1.0
aF1.0
aI25
aI11
aF1.0
aI25
aI25
aI-2
aI13
aI1
aI10
aI11
aI25
aI14
aI16
aa(lp186
I23
aI1
aF1.0
aF1.0
aI25
aI12
aF1.0
aI25
aI25
aI-2
aI14
aI1
aI11
aI12
aI25
aI14
aI15
aa(lp187
I23
aI1
aF1.0
aF1.0
aI25
aI13
aF1.0
aI25
aI25
aI-2
aI15
aI1
aI12
aI13
aI25
aI13
aI14
aa(lp188
I23
aI1
aF1.0
aF1.0
aI25
aI14
aF1.0
aI25
aI25
aI-2
aI14
aI1
aI13
aI14
aI25
aI12
aI13
aa(lp189
I23
aI1
aF1.0
aF1.0
aI25
aI15
aF1.0
aI25
aI25
aI-2
aI13
aI1
aI14
aI15
aI25
aI11
aI12
aa(lp190
I23
aI1
aF1.0
aF1.0
aI25
aI16
aF1.0
aI25
aI25
aI-2
aI12
aI1
aI15
aI16
aI25
aI10
aI11
aa(lp191
I23
aI1
aF1.0
aF1.0
aI25
aI17
aF1.0
aI25
aI25
aI-2
aI11
aI1
aI14
aI15
aI25
aI9
aI10
aa(lp192
I23
aI1
aF1.0
aF1.0
aI25
aI18
aF1.0
aI25
aI25
aI-2
aI10
aI1
aI15
aI16
aI25
aI8
aI9
aa(lp193
I23
aI1
aF1.0
aF1.0
aI25
aI19
aF1.0
aI25
aI25
aI-2
aI9
aI1
aI16
aI17
aI25
aI7
aI8
aa(lp194
I23
aI1
aF1.0
aF1.0
aI25
aI20
aF1.0
aI25
aI25
aI-2
aI8
aI1
aI17
aI18
aI25
aI6
aI7
aa(lp195
I23
aI1
aF1.0
aF1.0
aI25
aI21
aF1.0
aI25
aI25
aI-2
aI7
aI1
aI18
aI19
aI25
aI5
aI6
aa(lp196
I23
aI1
aF1.0
aF1.0
aI25
aI22
aF1.0
aI25
aI25
aI-2
aI6
aI1
aI19
aI20
aI25
aI4
aI5
aa(lp197
I23
aI1
aF1.0
aF1.0
aI25
aI23
aF1.0
aI25
aI25
aI-2
aI5
aI1
aI20
aI21
aI25
aI3
aI4
aa(lp198
I23
aI1
aF1.0
aF1.0
aI25
aI24
aF1.0
aI25
aI25
aI-2
aI6
aI1
aI21
aI22
aI25
aI2
aI5
aa(lp199
I23
aI1
aF1.0
aF1.0
aI25
aI25
aF1.0
aI25
aI25
aI-2
aI7
aI1
aI22
aI23
aI25
aI1
aI6
aa(lp200
I23
aI1
aF1.0
aF1.0
aI24
aI26
aF1.0
aI24
aI24
aI-1
aI8
aI1
aI23
aI24
aI24
aI5
aI7
aa(lp201
I23
aI1
aF1.0
aF1.0
aI24
aI27
aF1.0
aI24
aI24
aI-1
aI7
aI1
aI22
aI23
aI24
aI4
aI8
aa(lp202
I23
aI1
aF1.0
aF1.0
aI24
aI28
aF1.0
aI24
aI24
aI-1
aI6
aI1
aI23
aI24
aI24
aI3
aI9
aa(lp203
I23
aI1
aF1.0
aF1.0
aI24
aI29
aF1.0
aI24
aI24
aI-1
aI7
aI1
aI24
aI25
aI24
aI2
aI10
aa(lp204
I23
aI1
aF1.0
aF1.0
aI24
aI30
aF1.0
aI24
aI24
aI-1
aI8
aI1
aI25
aI26
aI24
aI1
aI11
aa(lp205
I23
aI1
aF1.0
aF1.0
aI23
aI31
aF1.0
aI23
aI23
aI0
aI9
aI1
aI26
aI27
aI23
aI1
aI12
aa(lp206
I23
aI1
aF1.0
aF1.0
aI22
aI32
aF1.0
aI22
aI22
aI1
aI10
aI1
aI27
aI28
aI22
aI3
aI18
aa(lp207
I23
aI1
aF1.0
aF1.0
aI22
aI31
aF1.0
aI22
aI22
aI1
aI9
aI1
aI26
aI27
aI22
aI2
aI17
aa(lp208
I23
aI1
aF1.0
aF1.0
aI22
aI30
aF1.0
aI22
aI22
aI1
aI8
aI1
aI25
aI26
aI22
aI1
aI16
aa(lp209
I23
aI1
aF1.0
aF1.0
aI21
aI31
aF1.0
aI21
aI21
aI2
aI9
aI1
aI26
aI27
aI21
aI12
aI18
aa(lp210
I23
aI1
aF1.0
aF1.0
aI21
aI31
aF1.0
aI21
aI21
aI2
aI9
aI1
aI26
aI27
aI21
aI12
aI18
aa(lp211
I23
aI1
aF1.0
aF1.0
aI21
aI31
aF1.0
aI21
aI21
aI2
aI9
aI1
aI26
aI27
aI21
aI12
aI18
aa(lp212
I23
aI1
aF1.0
aF1.0
aI21
aI30
aF1.0
aI21
aI21
aI2
aI8
aI1
aI25
aI26
aI21
aI11
aI17
aa(lp213
I23
aI1
aF1.0
aF1.0
aI21
aI29
aF1.0
aI21
aI21
aI2
aI7
aI1
aI24
aI25
aI21
aI10
aI16
aa(lp214
I23
aI1
aF1.0
aF1.0
aI21
aI28
aF1.0
aI21
aI21
aI2
aI6
aI1
aI23
aI24
aI21
aI9
aI15
aa(lp215
I23
aI1
aF1.0
aF1.0
aI21
aI29
aF1.0
aI21
aI21
aI2
aI5
aI1
aI24
aI25
aI21
aI8
aI16
aa(lp216
I23
aI1
aF1.0
aF1.0
aI21
aI28
aF1.0
aI21
aI21
aI2
aI4
aI1
aI23
aI24
aI21
aI7
aI15
aa(lp217
I23
aI1
aF1.0
aF1.0
aI21
aI27
aF1.0
aI21
aI21
aI2
aI3
aI1
aI22
aI23
aI21
aI6
aI14
aa(lp218
I23
aI1
aF1.0
aF1.0
aI21
aI26
aF1.0
aI21
aI21
aI2
aI2
aI1
aI21
aI22
aI21
aI5
aI13
aa(lp219
I23
aI1
aF1.0
aF1.0
aI21
aI27
aF1.0
aI21
aI21
aI2
aI1
aI1
aI22
aI23
aI21
aI4
aI14
aa(lp220
I23
aI1
aF1.0
aF1.0
aI21
aI28
aF1.0
aI21
aI21
aI2
aI16
aI1
aI23
aI24
aI21
aI3
aI15
aa(lp221
I23
aI1
aF1.0
aF1.0
aI21
aI29
aF1.0
aI21
aI21
aI2
aI17
aI1
aI24
aI25
aI21
aI2
aI16
aa(lp222
I23
aI1
aF1.0
aF1.0
aI21
aI30
aF1.0
aI21
aI21
aI2
aI18
aI1
aI25
aI26
aI21
aI1
aI17
aa(lp223
I23
aI1
aF1.0
aF1.0
aI20
aI31
aF1.0
aI20
aI20
aI3
aI19
aI1
aI26
aI27
aI20
aI1
aI18
aa(lp224
I23
aI1
aF1.0
aF1.0
aI19
aI32
aF1.0
aI19
aI19
aI4
aI20
aI1
aI27
aI28
aI19
aI1
aI19
aa(lp225
I23
aI1
aF1.0
aF1.0
aI18
aI33
aF1.0
aI18
aI18
aI5
aI21
aI1
aI28
aI29
aI18
aI1
aI20
aa(lp226
I23
aI1
aF1.0
aF1.0
aI17
aI34
aF1.0
aI17
aI17
aI6
aI22
aI1
aI29
aI30
aI17
aI15
aI22
aa(lp227
I23
aI1
aF1.0
aF1.0
aI17
aI33
aF1.0
aI17
aI17
aI6
aI21
aI1
aI28
aI29
aI17
aI14
aI21
aa(lp228
I23
aI1
aF1.0
aF1.0
aI17
aI32
aF1.0
aI17
aI17
aI6
aI20
aI1
aI27
aI28
aI17
aI13
aI20
aa(lp229
I23
aI1
aF1.0
aF1.0
aI17
aI31
aF1.0
aI17
aI17
aI6
aI19
aI1
aI26
aI27
aI17
aI12
aI19
aa(lp230
I23
aI1
aF1.0
aF1.0
aI17
aI30
aF1.0
aI17
aI17
aI6
aI18
aI1
aI25
aI26
aI17
aI11
aI18
aa(lp231
I23
aI1
aF1.0
aF1.0
aI17
aI29
aF1.0
aI17
aI17
aI6
aI17
aI1
aI24
aI25
aI17
aI10
aI17
aa(lp232
I23
aI1
aF1.0
aF1.0
aI17
aI28
aF1.0
aI17
aI17
aI6
aI16
aI1
aI23
aI24
aI17
aI9
aI16
aa(lp233
I23
aI1
aF1.0
aF1.0
aI17
aI27
aF1.0
aI17
aI17
aI6
aI15
aI1
aI22
aI23
aI17
aI8
aI15
aa(lp234
I23
aI1
aF1.0
aF1.0
aI17
aI26
aF1.0
aI17
aI17
aI6
aI14
aI1
aI21
aI22
aI17
aI7
aI14
aa(lp235
I23
aI1
aF1.0
aF1.0
aI17
aI25
aF1.0
aI17
aI17
aI6
aI13
aI1
aI20
aI21
aI17
aI6
aI13
aa(lp236
I23
aI1
aF1.0
aF1.0
aI17
aI24
aF1.0
aI17
aI17
aI6
aI12
aI1
aI19
aI20
aI17
aI5
aI12
aa(lp237
I23
aI1
aF1.0
aF1.0
aI17
aI23
aF1.0
aI17
aI17
aI6
aI11
aI1
aI20
aI21
aI17
aI4
aI11
aa(lp238
I23
aI1
aF1.0
aF1.0
aI17
aI24
aF1.0
aI17
aI17
aI6
aI10
aI1
aI21
aI22
aI17
aI3
aI10
aa(lp239
I23
aI1
aF1.0
aF1.0
aI17
aI25
aF1.0
aI17
aI17
aI6
aI9
aI1
aI22
aI23
aI17
aI2
aI9
aa(lp240
I23
aI1
aF1.0
aF1.0
aI17
aI26
aF1.0
aI17
aI17
aI6
aI10
aI1
aI23
aI24
aI17
aI1
aI10
aa(lp241
I23
aI1
aF1.0
aF1.0
aI16
aI27
aF1.0
aI16
aI16
aI7
aI11
aI1
aI24
aI25
aI16
aI1
aI10
aa(lp242
I23
aI1
aF1.0
aF1.0
aI15
aI28
aF1.0
aI15
aI15
aI8
aI12
aI1
aI25
aI26
aI15
aI5
aI11
aa(lp243
I23
aI1
aF1.0
aF1.0
aI15
aI27
aF1.0
aI15
aI15
aI8
aI11
aI1
aI24
aI25
aI15
aI4
aI10
aa(lp244
I23
aI1
aF1.0
aF1.0
aI15
aI26
aF1.0
aI15
aI15
aI8
aI10
aI1
aI23
aI24
aI15
aI3
aI9
aa(lp245
I23
aI1
aF1.0
aF1.0
aI15
aI25
aF1.0
aI15
aI15
aI8
aI9
aI1
aI22
aI23
aI15
aI2
aI8
aa(lp246
I23
aI1
aF1.0
aF1.0
aI15
aI26
aF1.0
aI15
aI15
aI8
aI8
aI1
aI23
aI24
aI15
aI1
aI7
aa(lp247
I23
aI1
aF1.0
aF1.0
aI14
aI27
aF1.0
aI14
aI14
aI9
aI9
aI1
aI24
aI25
aI14
aI1
aI9
aa(lp248
I23
aI1
aF1.0
aF1.0
aI13
aI28
aF1.0
aI13
aI13
aI10
aI10
aI1
aI25
aI26
aI13
aI8
aI11
aa(lp249
I23
aI1
aF1.0
aF1.0
aI13
aI27
aF1.0
aI13
aI13
aI10
aI9
aI1
aI24
aI25
aI13
aI7
aI10
aa(lp250
I23
aI1
aF1.0
aF1.0
aI13
aI26
aF1.0
aI13
aI13
aI10
aI8
aI1
aI23
aI24
aI13
aI6
aI9
aa(lp251
I23
aI1
aF1.0
aF1.0
aI13
aI25
aF1.0
aI13
aI13
aI10
aI7
aI1
aI24
aI25
aI13
aI5
aI8
aa(lp252
I23
aI1
aF1.0
aF1.0
aI13
aI24
aF1.0
aI13
aI13
aI10
aI6
aI1
aI25
aI26
aI13
aI4
aI7
aa(lp253
I23
aI1
aF1.0
aF1.0
aI13
aI25
aF1.0
aI13
aI13
aI10
aI7
aI1
aI26
aI27
aI13
aI3
aI8
aa(lp254
I23
aI1
aF1.0
aF1.0
aI13
aI26
aF1.0
aI13
aI13
aI10
aI8
aI1
aI27
aI28
aI13
aI2
aI9
aa(lp255
I23
aI1
aF1.0
aF1.0
aI13
aI27
aF1.0
aI13
aI13
aI10
aI9
aI1
aI28
aI29
aI13
aI1
aI10
aa(lp256
I23
aI1
aF1.0
aF1.0
aI12
aI28
aF1.0
aI12
aI12
aI11
aI10
aI1
aI29
aI30
aI12
aI4
aI11
aa(lp257
I23
aI1
aF1.0
aF1.0
aI12
aI27
aF1.0
aI12
aI12
aI11
aI9
aI1
aI28
aI29
aI12
aI3
aI10
aa(lp258
I23
aI1
aF1.0
aF1.0
aI12
aI28
aF1.0
aI12
aI12
aI11
aI10
aI1
aI29
aI30
aI12
aI2
aI11
aa(lp259
I23
aI1
aF1.0
aF1.0
aI12
aI29
aF1.0
aI12
aI12
aI11
aI11
aI1
aI30
aI31
aI12
aI1
aI12
aa(lp260
I23
aI1
aF1.0
aF1.0
aI11
aI30
aF1.0
aI11
aI11
aI12
aI12
aI1
aI31
aI32
aI11
aI3
aI13
aa(lp261
I23
aI1
aF1.0
aF1.0
aI11
aI29
aF1.0
aI11
aI11
aI12
aI11
aI1
aI30
aI31
aI11
aI2
aI12
aa(lp262
I23
aI1
aF1.0
aF1.0
aI11
aI30
aF1.0
aI11
aI11
aI12
aI12
aI1
aI31
aI32
aI11
aI1
aI13
aa(lp263
I23
aI1
aF1.0
aF1.0
aI10
aI31
aF1.0
aI10
aI10
aI13
aI13
aI1
aI32
aI33
aI10
aI1
aI14
aa(lp264
I23
aI1
aF1.0
aF1.0
aI9
aI32
aF1.0
aI9
aI9
aI14
aI14
aI1
aI33
aI34
aI9
aI12
aI18
aa(lp265
I23
aI1
aF1.0
aF1.0
aI9
aI32
aF1.0
aI9
aI9
aI14
aI14
aI1
aI33
aI34
aI9
aI12
aI18
aa(lp266
I23
aI1
aF1.0
aF1.0
aI9
aI31
aF1.0
aI9
aI9
aI14
aI13
aI1
aI32
aI33
aI9
aI11
aI17
aa(lp267
I23
aI1
aF1.0
aF1.0
aI9
aI30
aF1.0
aI9
aI9
aI14
aI12
aI1
aI31
aI32
aI9
aI10
aI16
aa(lp268
I23
aI1
aF1.0
aF1.0
aI9
aI29
aF1.0
aI9
aI9
aI14
aI11
aI1
aI30
aI31
aI9
aI9
aI15
aa(lp269
I23
aI1
aF1.0
aF1.0
aI9
aI28
aF1.0
aI9
aI9
aI14
aI10
aI1
aI29
aI30
aI9
aI8
aI14
aa(lp270
I23
aI1
aF1.0
aF1.0
aI9
aI27
aF1.0
aI9
aI9
aI14
aI9
aI1
aI28
aI29
aI9
aI7
aI13
aa(lp271
I23
aI1
aF1.0
aF1.0
aI9
aI26
aF1.0
aI9
aI9
aI14
aI8
aI1
aI27
aI28
aI9
aI6
aI12
aa(lp272
I23
aI1
aF1.0
aF1.0
aI9
aI26
aF1.0
aI9
aI9
aI14
aI8
aI1
aI27
aI28
aI9
aI6
aI12
aa(lp273
I23
aI1
aF1.0
aF1.0
aI9
aI25
aF1.0
aI9
aI9
aI14
aI7
aI1
aI26
aI27
aI9
aI5
aI11
aa(lp274
I23
aI1
aF1.0
aF1.0
aI9
aI24
aF1.0
aI9
aI9
aI14
aI6
aI1
aI25
aI26
aI9
aI4
aI10
aa(lp275
I23
aI1
aF1.0
aF1.0
aI9
aI23
aF1.0
aI9
aI9
aI14
aI5
aI1
aI24
aI25
aI9
aI3
aI9
aa(lp276
I23
aI1
aF1.0
aF1.0
aI9
aI22
aF1.0
aI9
aI9
aI14
aI4
aI1
aI23
aI24
aI9
aI2
aI8
aa(lp277
I23
aI1
aF1.0
aF1.0
aI9
aI21
aF1.0
aI9
aI9
aI14
aI3
aI1
aI22
aI23
aI9
aI1
aI7
aa(lp278
I23
aI1
aF1.0
aF1.0
aI8
aI20
aF1.0
aI8
aI8
aI15
aI2
aI1
aI21
aI22
aI8
aI5
aI4
aa(lp279
I23
aI1
aF1.0
aF1.0
aI8
aI19
aF1.0
aI8
aI8
aI15
aI1
aI1
aI20
aI21
aI8
aI4
aI3
aa(lp280
I23
aI1
aF1.0
aF1.0
aI8
aI18
aF1.0
aI8
aI8
aI15
aI0
aI1
aI19
aI20
aI8
aI5
aI4
aa(lp281
I23
aI1
aF1.0
aF1.0
aI8
aI19
aF1.0
aI8
aI8
aI15
aI0
aI1
aI20
aI21
aI8
aI4
aI3
aa(lp282
I23
aI1
aF1.0
aF1.0
aI8
aI20
aF1.0
aI8
aI8
aI15
aI0
aI1
aI21
aI22
aI8
aI3
aI2
aa(lp283
I23
aI1
aF1.0
aF1.0
aI8
aI21
aF1.0
aI8
aI8
aI15
aI0
aI1
aI22
aI23
aI8
aI2
aI3
aa(lp284
I23
aI1
aF1.0
aF1.0
aI8
aI22
aF1.0
aI8
aI8
aI15
aI0
aI1
aI23
aI24
aI8
aI1
aI4
aa(lp285
I23
aI1
aF1.0
aF1.0
aI7
aI23
aF1.0
aI7
aI7
aI16
aI0
aI1
aI24
aI25
aI7
aI1
aI11
aa(lp286
I23
aI1
aF1.0
aF1.0
aI6
aI24
aF1.0
aI6
aI6
aI17
aI0
aI1
aI25
aI26
aI6
aI8
aI12
aa(lp287
I23
aI1
aF1.0
aF1.0
aI6
aI23
aF1.0
aI6
aI6
aI17
aI0
aI1
aI24
aI25
aI6
aI7
aI11
aa(lp288
I23
aI1
aF1.0
aF1.0
aI6
aI22
aF1.0
aI6
aI6
aI17
aI0
aI1
aI23
aI24
aI6
aI6
aI10
aa(lp289
I23
aI1
aF1.0
aF1.0
aI6
aI21
aF1.0
aI6
aI6
aI17
aI0
aI1
aI22
aI23
aI6
aI5
aI9
aa(lp290
I23
aI1
aF1.0
aF1.0
aI6
aI20
aF1.0
aI6
aI6
aI17
aI0
aI1
aI21
aI22
aI6
aI4
aI8
aa(lp291
I23
aI1
aF1.0
aF1.0
aI6
aI21
aF1.0
aI6
aI6
aI17
aI0
aI1
aI22
aI23
aI6
aI3
aI9
aa(lp292
I23
aI1
aF1.0
aF1.0
aI6
aI22
aF1.0
aI6
aI6
aI17
aI0
aI1
aI23
aI24
aI6
aI2
aI10
aa(lp293
I23
aI1
aF1.0
aF1.0
aI6
aI23
aF1.0
aI6
aI6
aI17
aI0
aI1
aI24
aI25
aI6
aI1
aI11
aa(lp294
I23
aI1
aF1.0
aF1.0
aI5
aI24
aF1.0
aI5
aI5
aI18
aI0
aI1
aI25
aI26
aI5
aI2
aI12
aa(lp295
I23
aI1
aF1.0
aF1.0
aI5
aI25
aF1.0
aI5
aI5
aI18
aI0
aI1
aI26
aI27
aI5
aI1
aI13
aa(lp296
I23
aI1
aF1.0
aF1.0
aI4
aI26
aF1.0
aI4
aI4
aI19
aI0
aI1
aI27
aI28
aI4
aI2
aI14
aa(lp297
I23
aI1
aF1.0
aF1.0
aI4
aI25
aF1.0
aI4
aI4
aI19
aI0
aI1
aI26
aI27
aI4
aI1
aI13
aa(lp298
I23
aI1
aF1.0
aF1.0
aI3
aI26
aF1.0
aI3
aI3
aI20
aI0
aI1
aI27
aI28
aI3
aI10
aI14
aa(lp299
I23
aI1
aF1.0
aF1.0
aI3
aI27
aF1.0
aI3
aI3
aI20
aI0
aI1
aI28
aI29
aI3
aI11
aI15
aa(lp300
I23
aI1
aF1.0
aF1.0
aI3
aI26
aF1.0
aI3
aI3
aI20
aI0
aI1
aI27
aI28
aI3
aI10
aI14
aa(lp301
I23
aI1
aF1.0
aF1.0
aI3
aI25
aF1.0
aI3
aI3
aI20
aI0
aI1
aI26
aI27
aI3
aI9
aI13
aa(lp302
I23
aI1
aF1.0
aF1.0
aI3
aI24
aF1.0
aI3
aI3
aI20
aI0
aI1
aI25
aI26
aI3
aI8
aI12
aa(lp303
I23
aI1
aF1.0
aF1.0
aI3
aI23
aF1.0
aI3
aI3
aI20
aI0
aI1
aI24
aI25
aI3
aI7
aI11
aa(lp304
I23
aI1
aF1.0
aF1.0
aI3
aI22
aF1.0
aI3
aI3
aI20
aI0
aI1
aI23
aI24
aI3
aI6
aI10
aa(lp305
I23
aI1
aF1.0
aF1.0
aI3
aI23
aF1.0
aI3
aI3
aI20
aI0
aI1
aI24
aI25
aI3
aI5
aI11
aa(lp306
I23
aI1
aF1.0
aF1.0
aI3
aI24
aF1.0
aI3
aI3
aI20
aI0
aI1
aI25
aI26
aI3
aI4
aI12
aa(lp307
I23
aI1
aF1.0
aF1.0
aI3
aI25
aF1.0
aI3
aI3
aI20
aI0
aI1
aI26
aI27
aI3
aI3
aI13
aa(lp308
I23
aI1
aF1.0
aF1.0
aI3
aI26
aF1.0
aI3
aI3
aI20
aI0
aI1
aI27
aI28
aI3
aI2
aI14
aa(lp309
I23
aI1
aF1.0
aF1.0
aI3
aI27
aF1.0
aI3
aI3
aI20
aI0
aI1
aI28
aI29
aI3
aI1
aI15
aa.