(lp0
(lp1
I30
aI0
aF1.0
aF1.0
aI30
aI16
aF1.0
aI30
aI30
aI0
aI34
aI2
aI1
aI0
aI30
aI25
aI31
aa(lp2
I30
aI0
aF1.0
aF1.0
aI30
aI16
aF1.0
aI30
aI30
aI0
aI34
aI2
aI0
aI0
aI30
aI25
aI31
aa(lp3
I30
aI0
aF1.0
aF1.0
aI30
aI15
aF1.0
aI30
aI30
aI0
aI33
aI2
aI2
aI0
aI30
aI24
aI30
aa(lp4
I30
aI0
aF1.0
aF1.0
aI30
aI14
aF1.0
aI30
aI30
aI0
aI32
aI2
aI2
aI0
aI30
aI23
aI29
aa(lp5
I30
aI0
aF1.0
aF1.0
aI30
aI13
aF1.0
aI30
aI30
aI0
aI31
aI2
aI0
aI0
aI30
aI22
aI28
aa(lp6
I30
aI0
aF1.0
aF1.0
aI30
aI13
aF1.0
aI30
aI30
aI0
aI31
aI2
aI1
aI0
aI30
aI22
aI28
aa(lp7
I30
aI0
aF1.0
aF1.0
aI30
aI12
aF1.0
aI30
aI30
aI0
aI30
aI2
aI1
aI0
aI30
aI21
aI27
aa(lp8
I30
aI0
aF1.0
aF1.0
aI30
aI13
aF1.0
aI30
aI30
aI0
aI31
aI2
aI3
aI0
aI30
aI22
aI28
aa(lp9
I30
aI0
aF1.0
aF1.0
aI30
aI13
aF1.0
aI30
aI30
aI0
aI31
aI2
aI3
aI0
aI30
aI22
aI28
aa(lp10
I30
aI0
aF1.0
aF1.0
aI30
aI13
aF1.0
aI30
aI30
aI0
aI31
aI2
aI4
aI0
aI30
aI22
aI28
aa(lp11
I30
aI0
aF1.0
aF1.0
aI30
aI13
aF1.0
aI30
aI30
aI0
aI31
aI2
aI5
aI0
aI30
aI22
aI28
aa(lp12
I30
aI0
aF1.0
aF1.0
aI30
aI13
aF1.0
aI30
aI30
aI0
aI31
aI2
aI6
aI0
aI30
aI22
aI28
aa(lp13
I30
aI0
aF1.0
aF1.0
aI30
aI13
aF1.0
aI30
aI30
aI0
aI31
aI2
aI7
aI0
aI30
aI22
aI28
aa(lp14
I30
aI0
aF1.0
aF1.0
aI30
aI12
aF1.0
aI30
aI30
aI0
aI30
aI2
aI7
aI0
aI30
aI21
aI27
aa(lp15
I30
aI0
aF1.0
aF1.0
aI30
aI11
aF1.0
aI30
aI30
aI0
aI29
aI2
aI7
aI0
aI30
aI20
aI26
aa(lp16
I30
aI0
aF1.0
aF1.0
aI30
aI10
aF1.0
aI30
aI30
aI0
aI28
aI2
aI7
aI0
aI30
aI19
aI25
aa(lp17
I30
aI0
aF1.0
aF1.0
aI30
aI9
aF1.0
aI30
aI30
aI0
aI27
aI2
aI7
aI0
aI30
aI18
aI24
aa(lp18
I30
aI0
aF1.0
aF1.0
aI30
aI8
aF1.0
aI30
aI30
aI0
aI26
aI2
aI7
aI0
aI30
aI17
aI23
aa(lp19
I30
aI0
aF1.0
aF1.0
aI30
aI7
aF1.0
aI30
aI30
aI0
aI25
aI2
aI7
aI0
aI30
aI16
aI22
aa(lp20
I30
aI0
aF1.0
aF1.0
aI30
aI6
aF1.0
aI30
aI30
aI0
aI24
aI2
aI7
aI0
aI30
aI15
aI21
aa(lp21
I30
aI0
aF1.0
aF1.0
aI30
aI5
aF1.0
aI30
aI30
aI0
aI23
aI2
aI9
aI0
aI30
aI14
aI20
aa(lp22
I30
aI1
aF1.0
aF1.0
aI30
aI4
aF1.0
aI30
aI30
aI0
aI22
aI2
aI11
aI13
aI30
aI13
aI19
aa(lp23
I30
aI1
aF1.0
aF1.0
aI30
aI4
aF1.0
aI30
aI30
aI0
aI22
aI2
aI12
aI13
aI30
aI13
aI19
aa(lp24
I30
aI1
aF1.0
aF1.0
aI30
aI4
aF1.0
aI30
aI30
aI0
aI22
aI2
aI11
aI13
aI30
aI13
aI19
aa(lp25
I30
aI1
aF1.0
aF1.0
aI30
aI3
aF1.0
aI30
aI30
aI0
aI21
aI2
aI9
aI14
aI30
aI12
aI18
aa(lp26
I29
aI1
aF1.0
aF1.0
aI30
aI2
aF1.0
aI30
aI30
aI-1
aI20
aI2
aI7
aI14
aI30
aI11
aI17
aa(lp27
I29
aI1
aF1.0
aF1.0
aI30
aI1
aF1.0
aI30
aI30
aI-1
aI19
aI2
aI5
aI13
aI30
aI10
aI16
aa(lp28
I29
aI1
aF1.0
aF1.0
aI30
aI2
aF1.0
aI30
aI30
aI-1
aI18
aI2
aI5
aI11
aI30
aI9
aI15
aa(lp29
I28
aI1
aF1.0
aF1.0
aI30
aI3
aF1.0
aI30
aI30
aI-2
aI17
aI2
aI5
aI11
aI30
aI8
aI14
aa(lp30
I27
aI1
aF1.0
aF1.0
aI30
aI4
aF1.0
aI30
aI30
aI-3
aI16
aI2
aI5
aI10
aI30
aI7
aI13
aa(lp31
I27
aI1
aF1.0
aF1.0
aI30
aI5
aF1.0
aI30
aI30
aI-3
aI15
aI2
aI5
aI9
aI30
aI6
aI12
aa(lp32
I27
aI1
aF1.0
aF1.0
aI30
aI6
aF1.0
aI30
aI30
aI-3
aI14
aI2
aI5
aI7
aI30
aI5
aI11
aa(lp33
I27
aI0
aF1.0
aF1.0
aI30
aI7
aF1.0
aI30
aI30
aI-3
aI13
aI1
aI7
aI0
aI30
aI4
aI10
aa(lp34
I27
aI0
aF1.0
aF1.0
aI30
aI8
aF1.0
aI30
aI30
aI-3
aI14
aI1
aI9
aI0
aI30
aI3
aI11
aa(lp35
I27
aI0
aF1.0
aF1.0
aI30
aI9
aF1.0
aI30
aI30
aI-3
aI15
aI1
aI11
aI0
aI30
aI2
aI12
aa(lp36
I27
aI0
aF1.0
aF1.0
aI30
aI10
aF1.0
aI30
aI30
aI-3
aI16
aI1
aI11
aI0
aI30
aI1
aI13
aa(lp37
I27
aI0
aF1.0
aF1.0
aI30
aI11
aF1.0
aI30
aI30
aI-3
aI17
aI1
aI11
aI0
aI30
aI1
aI14
aa(lp38
I27
aI0
aF1.0
aF1.0
aI29
aI12
aF1.0
aI29
aI29
aI-2
aI18
aI1
aI11
aI0
aI29
aI1
aI15
aa(lp39
I27
aI0
aF1.0
aF1.0
aI28
aI13
aF1.0
aI28
aI28
aI-1
aI19
aI1
aI11
aI0
aI28
aI4
aI16
aa(lp40
I27
aI0
aF1.0
aF1.0
aI28
aI13
aF1.0
aI28
aI28
aI-1
aI19
aI0
aI10
aI0
aI28
aI4
aI16
aa(lp41
I27
aI0
aF1.0
aF1.0
aI28
aI12
aF1.0
aI28
aI28
aI-1
aI18
aI0
aI8
aI0
aI28
aI3
aI15
aa(lp42
I27
aI0
aF1.0
aF1.0
aI28
aI11
aF1.0
aI28
aI28
aI-1
aI17
aI0
aI8
aI0
aI28
aI2
aI14
aa(lp43
I27
aI0
aF1.0
aF1.0
aI27
aI10
aF1.0
aI27
aI27
aI0
aI16
aI0
aI8
aI0
aI27
aI1
aI14
aa(lp44
I27
aI0
aF1.0
aF1.0
aI25
aI11
aF1.0
aI25
aI25
aI2
aI17
aI0
aI10
aI0
aI25
aI9
aI15
aa(lp45
I27
aI0
aF1.0
aF1.0
aI25
aI12
aF1.0
aI25
aI25
aI2
aI18
aI0
aI10
aI0
aI25
aI8
aI16
aa(lp46
I27
aI0
aF1.0
aF1.0
aI25
aI13
aF1.0
aI25
aI25
aI2
aI17
aI0
aI10
aI0
aI25
aI7
aI17
aa(lp47
I27
aI0
aF1.0
aF1.0
aI25
aI14
aF1.0
aI25
aI25
aI2
aI16
aI0
aI10
aI0
aI25
aI6
aI18
aa(lp48
I27
aI0
aF1.0
aF1.0
aI25
aI15
aF1.0
aI25
aI25
aI2
aI15
aI1
aI12
aI0
aI25
aI5
aI17
aa(lp49
I27
aI0
aF1.0
aF1.0
aI25
aI16
aF1.0
aI25
aI25
aI2
aI14
aI1
aI13
aI0
aI25
aI4
aI16
aa(lp50
I27
aI0
aF1.0
aF1.0
aI25
aI17
aF1.0
aI25
aI25
aI2
aI13
aI1
aI14
aI0
aI25
aI3
aI15
aa(lp51
I27
aI0
aF1.0
aF1.0
aI25
aI18
aF1.0
aI25
aI25
aI2
aI14
aI1
aI15
aI0
aI25
aI2
aI16
aa(lp52
I27
aI0
aF1.0
aF1.0
aI25
aI19
aF1.0
aI25
aI25
aI2
aI15
aI1
aI16
aI0
aI25
aI1
aI17
aa(lp53
I27
aI0
aF1.0
aF1.0
aI24
aI20
aF1.0
aI24
aI24
aI3
aI16
aI1
aI17
aI0
aI24
aI8
aI19
aa(lp54
I27
aI0
aF1.0
aF1.0
aI24
aI20
aF1.0
aI24
aI24
aI3
aI16
aI1
aI17
aI0
aI24
aI8
aI19
aa(lp55
I27
aI0
aF1.0
aF1.0
aI24
aI19
aF1.0
aI24
aI24
aI3
aI15
aI1
aI15
aI0
aI24
aI7
aI18
aa(lp56
I27
aI0
aF1.0
aF1.0
aI24
aI18
aF1.0
aI24
aI24
aI3
aI14
aI1
aI13
aI0
aI24
aI6
aI17
aa(lp57
I27
aI0
aF1.0
aF1.0
aI24
aI17
aF1.0
aI24
aI24
aI3
aI13
aI1
aI11
aI0
aI24
aI5
aI16
aa(lp58
I27
aI0
aF1.0
aF1.0
aI24
aI18
aF1.0
aI24
aI24
aI3
aI12
aI1
aI13
aI0
aI24
aI4
aI15
aa(lp59
I27
aI0
aF1.0
aF1.0
aI24
aI19
aF1.0
aI24
aI24
aI3
aI11
aI1
aI15
aI0
aI24
aI3
aI14
aa(lp60
I27
aI0
aF1.0
aF1.0
aI24
aI20
aF1.0
aI24
aI24
aI3
aI10
aI1
aI17
aI0
aI24
aI2
aI13
aa(lp61
I27
aI0
aF1.0
aF1.0
aI24
aI21
aF1.0
aI24
aI24
aI3
aI9
aI1
aI19
aI0
aI24
aI1
aI12
aa(lp62
I27
aI0
aF1.0
aF1.0
aI23
aI22
aF1.0
aI23
aI23
aI4
aI10
aI1
aI21
aI0
aI23
aI2
aI13
aa(lp63
I27
aI0
aF1.0
aF1.0
aI23
aI23
aF1.0
aI23
aI23
aI4
aI11
aI1
aI23
aI0
aI23
aI1
aI14
aa(lp64
I27
aI0
aF1.0
aF1.0
aI22
aI24
aF1.0
aI22
aI22
aI5
aI12
aI1
aI25
aI0
aI22
aI1
aI15
aa(lp65
I27
aI0
aF1.0
aF1.0
aI21
aI25
aF1.0
aI21
aI21
aI6
aI13
aI1
aI27
aI0
aI21
aI7
aI17
aa(lp66
I27
aI0
aF1.0
aF1.0
aI21
aI24
aF1.0
aI21
aI21
aI6
aI12
aI1
aI25
aI0
aI21
aI6
aI16
aa(lp67
I27
aI0
aF1.0
aF1.0
aI21
aI23
aF1.0
aI21
aI21
aI6
aI11
aI1
aI23
aI0
aI21
aI5
aI15
aa(lp68
I27
aI0
aF1.0
aF1.0
aI21
aI22
aF1.0
aI21
aI21
aI6
aI10
aI1
aI21
aI0
aI21
aI4
aI14
aa(lp69
I27
aI0
aF1.0
aF1.0
aI21
aI21
aF1.0
aI21
aI21
aI6
aI9
aI1
aI19
aI0
aI21
aI3
aI13
aa(lp70
I27
aI0
aF1.0
aF1.0
aI21
aI22
aF1.0
aI21
aI21
aI6
aI8
aI1
aI19
aI0
aI21
aI2
aI12
aa(lp71
I27
aI0
aF1.0
aF1.0
aI21
aI23
aF1.0
aI21
aI21
aI6
aI7
aI1
aI19
aI0
aI21
aI1
aI11
aa(lp72
I27
aI0
aF1.0
aF1.0
aI20
aI24
aF1.0
aI20
aI20
aI7
aI8
aI1
aI19
aI0
aI20
aI5
aI12
aa(lp73
I27
aI0
aF1.0
aF1.0
aI20
aI23
aF1.0
aI20
aI20
aI7
aI7
aI1
aI19
aI0
aI20
aI4
aI11
aa(lp74
I27
aI0
aF1.0
aF1.0
aI20
aI24
aF1.0
aI20
aI20
aI7
aI6
aI1
aI17
aI0
aI20
aI3
aI10
aa(lp75
I27
aI0
aF1.0
aF1.0
aI20
aI25
aF1.0
aI20
aI20
aI7
aI5
aI1
aI17
aI0
aI20
aI2
aI9
aa(lp76
I27
aI0
aF1.0
aF1.0
aI20
aI24
aF1.0
aI20
aI20
aI7
aI4
aI1
aI17
aI0
aI20
aI3
aI8
aa(lp77
I27
aI0
aF1.0
aF1.0
aI20
aI23
aF1.0
aI20
aI20
aI7
aI3
aI1
aI17
aI0
aI20
aI2
aI7
aa(lp78
I27
aI1
aF1.0
aF1.0
aI20
aI24
aF1.0
aI20
aI20
aI7
aI4
aI1
aI19
aI17
aI20
aI1
aI8
aa(lp79
I27
aI0
aF1.0
aF1.0
aI20
aI25
aF1.0
aI20
aI20
aI7
aI3
aI1
aI19
aI0
aI20
aI2
aI9
aa(lp80
I27
aI0
aF1.0
aF1.0
aI20
aI26
aF1.0
aI20
aI20
aI7
aI2
aI1
aI19
aI0
aI20
aI1
aI10
aa(lp81
I27
aI0
aF1.0
aF1.0
aI19
aI27
aF1.0
aI19
aI19
aI8
aI3
aI1
aI19
aI0
aI19
aI4
aI11
aa(lp82
I27
aI0
aF1.0
aF1.0
aI19
aI26
aF1.0
aI19
aI19
aI8
aI2
aI0
aI17
aI0
aI19
aI3
aI10
aa(lp83
I27
aI0
aF1.0
aF1.0
aI19
aI27
aF1.0
aI19
aI19
aI8
aI1
aI0
aI18
aI0
aI19
aI4
aI11
aa(lp84
I27
aI0
aF1.0
aF1.0
aI19
aI28
aF1.0
aI19
aI19
aI8
aI2
aI0
aI19
aI0
aI19
aI5
aI12
aa(lp85
I27
aI0
aF1.0
aF1.0
aI19
aI29
aF1.0
aI19
aI19
aI8
aI1
aI0
aI20
aI0
aI19
aI6
aI13
aa(lp86
I27
aI0
aF1.0
aF1.0
aI19
aI30
aF1.0
aI19
aI19
aI8
aI2
aI0
aI21
aI0
aI19
aI6
aI14
aa(lp87
I27
aI0
aF1.0
aF1.0
aI19
aI31
aF1.0
aI19
aI19
aI8
aI3
aI0
aI22
aI0
aI19
aI5
aI15
aa(lp88
I27
aI0
aF1.0
aF1.0
aI19
aI32
aF1.0
aI19
aI19
aI8
aI4
aI0
aI22
aI0
aI19
aI4
aI16
aa(lp89
I27
aI0
aF1.0
aF1.0
aI19
aI33
aF1.0
aI19
aI19
aI8
aI5
aI1
aI24
aI0
aI19
aI3
aI17
aa(lp90
I27
aI0
aF1.0
aF1.0
aI19
aI34
aF1.0
aI19
aI19
aI8
aI6
aI1
aI25
aI0
aI19
aI2
aI18
aa(lp91
I27
aI0
aF1.0
aF1.0
aI19
aI35
aF1.0
aI19
aI19
aI8
aI7
aI1
aI26
aI0
aI19
aI1
aI19
aa(lp92
I27
aI0
aF1.0
aF1.0
aI18
aI36
aF1.0
aI18
aI18
aI9
aI8
aI1
aI27
aI0
aI18
aI1
aI20
aa(lp93
I27
aI0
aF1.0
aF1.0
aI17
aI37
aF1.0
aI17
aI17
aI10
aI9
aI1
aI28
aI0
aI17
aI11
aI22
aa(lp94
I27
aI0
aF1.0
aF1.0
aI17
aI36
aF1.0
aI17
aI17
aI10
aI8
aI1
aI27
aI0
aI17
aI10
aI21
aa(lp95
I27
aI0
aF1.0
aF1.0
aI17
aI35
aF1.0
aI17
aI17
aI10
aI7
aI1
aI26
aI0
aI17
aI9
aI20
aa(lp96
I27
aI0
aF1.0
aF1.0
aI17
aI34
aF1.0
aI17
aI17
aI10
aI6
aI1
aI25
aI0
aI17
aI8
aI19
aa(lp97
I27
aI0
aF1.0
aF1.0
aI17
aI33
aF1.0
aI17
aI17
aI10
aI5
aI1
aI24
aI0
aI17
aI7
aI18
aa(lp98
I27
aI0
aF1.0
aF1.0
aI17
aI32
aF1.0
aI17
aI17
aI10
aI4
aI1
aI23
aI0
aI17
aI6
aI17
aa(lp99
I27
aI0
aF1.0
aF1.0
aI17
aI31
aF1.0
aI17
aI17
aI10
aI3
aI1
aI22
aI0
aI17
aI5
aI16
aa(lp100
I27
aI0
aF1.0
aF1.0
aI17
aI32
aF1.0
aI17
aI17
aI10
aI4
aI1
aI23
aI0
aI17
aI4
aI17
aa(lp101
I27
aI1
aF1.0
aF1.0
aI17
aI33
aF1.0
aI17
aI17
aI10
aI5
aI1
aI24
aI25
aI17
aI3
aI18
aa(lp102
I27
aI1
aF1.0
aF1.0
aI17
aI34
aF1.0
aI17
aI17
aI10
aI6
aI1
aI26
aI27
aI17
aI2
aI19
aa(lp103
I27
aI1
aF1.0
aF1.0
aI17
aI35
aF1.0
aI17
aI17
aI10
aI7
aI1
aI28
aI29
aI17
aI1
aI20
aa(lp104
I27
aI1
aF1.0
aF1.0
aI16
aI36
aF1.0
aI16
aI16
aI11
aI8
aI1
aI30
aI31
aI16
aI1
aI20
aa(lp105
I26
aI1
aF1.0
aF1.0
aI15
aI37
aF1.0
aI15
aI15
aI11
aI9
aI1
aI32
aI33
aI15
aI14
aI22
aa(lp106
I25
aI1
aF1.0
aF1.0
aI15
aI36
aF1.0
aI15
aI15
aI10
aI8
aI1
aI32
aI33
aI15
aI13
aI21
aa(lp107
I25
aI1
aF1.0
aF1.0
aI15
aI35
aF1.0
aI15
aI15
aI10
aI7
aI1
aI30
aI33
aI15
aI12
aI20
aa(lp108
I25
aI1
aF1.0
aF1.0
aI15
aI34
aF1.0
aI15
aI15
aI10
aI6
aI1
aI28
aI33
aI15
aI11
aI19
aa(lp109
I24
aI1
aF1.0
aF1.0
aI15
aI33
aF1.0
aI15
aI15
aI9
aI5
aI1
aI28
aI33
aI15
aI10
aI18
aa(lp110
I24
aI1
aF1.0
aF1.0
aI15
aI32
aF1.0
aI15
aI15
aI9
aI4
aI1
aI28
aI31
aI15
aI9
aI17
aa(lp111
I24
aI1
aF1.0
aF1.0
aI15
aI31
aF1.0
aI15
aI15
aI9
aI3
aI1
aI28
aI29
aI15
aI8
aI16
aa(lp112
I24
aI1
aF1.0
aF1.0
aI15
aI30
aF1.0
aI15
aI15
aI9
aI2
aI1
aI28
aI28
aI15
aI7
aI15
aa(lp113
I24
aI1
aF1.0
aF1.0
aI15
aI29
aF1.0
aI15
aI15
aI9
aI1
aI1
aI28
aI26
aI15
aI6
aI14
aa(lp114
I24
aI1
aF1.0
aF1.0
aI15
aI28
aF1.0
aI15
aI15
aI9
aI8
aI1
aI28
aI26
aI15
aI5
aI13
aa(lp115
I24
aI1
aF1.0
aF1.0
aI15
aI27
aF1.0
aI15
aI15
aI9
aI7
aI1
aI28
aI26
aI15
aI4
aI12
aa(lp116
I23
aI0
aF1.0
aF1.0
aI15
aI26
aF1.0
aI15
aI15
aI8
aI6
aI1
aI26
aI0
aI15
aI3
aI11
aa(lp117
I23
aI0
aF1.0
aF1.0
aI15
aI25
aF1.0
aI15
aI15
aI8
aI5
aI1
aI24
aI0
aI15
aI2
aI10
aa(lp118
I23
aI0
aF1.0
aF1.0
aI15
aI24
aF1.0
aI15
aI15
aI8
aI4
aI1
aI22
aI0
aI15
aI1
aI9
aa(lp119
I23
aI0
aF1.0
aF1.0
aI14
aI25
aF1.0
aI14
aI14
aI9
aI5
aI1
aI22
aI0
aI14
aI5
aI13
aa(lp120
I23
aI0
aF1.0
aF1.0
aI14
aI24
aF1.0
aI14
aI14
aI9
aI4
aI1
aI20
aI0
aI14
aI4
aI12
aa(lp121
I23
aI0
aF1.0
aF1.0
aI14
aI23
aF1.0
aI14
aI14
aI9
aI3
aI1
aI18
aI0
aI14
aI3
aI11
aa(lp122
I23
aI0
aF1.0
aF1.0
aI14
aI22
aF1.0
aI14
aI14
aI9
aI2
aI1
aI16
aI0
aI14
aI2
aI10
aa(lp123
I23
aI0
aF1.0
aF1.0
aI14
aI21
aF1.0
aI14
aI14
aI9
aI1
aI0
aI14
aI0
aI14
aI1
aI9
aa(lp124
I23
aI0
aF1.0
aF1.0
aI13
aI22
aF1.0
aI13
aI13
aI10
aI2
aI0
aI15
aI0
aI13
aI4
aI15
aa(lp125
I23
aI0
aF1.0
aF1.0
aI13
aI21
aF1.0
aI13
aI13
aI10
aI1
aI0
aI14
aI0
aI13
aI3
aI14
aa(lp126
I23
aI0
aF1.0
aF1.0
aI13
aI20
aF1.0
aI13
aI13
aI10
aI0
aI0
aI13
aI0
aI13
aI4
aI13
aa(lp127
I23
aI0
aF1.0
aF1.0
aI13
aI21
aF1.0
aI13
aI13
aI10
aI0
aI0
aI13
aI0
aI13
aI3
aI14
aa(lp128
I23
aI0
aF1.0
aF1.0
aI13
aI20
aF1.0
aI13
aI13
aI10
aI0
aI0
aI11
aI0
aI13
aI2
aI13
aa(lp129
I23
aI0
aF1.0
aF1.0
aI13
aI19
aF1.0
aI13
aI13
aI10
aI0
aI1
aI11
aI0
aI13
aI1
aI12
aa(lp130
I23
aI0
aF1.0
aF1.0
aI12
aI20
aF1.0
aI12
aI12
aI11
aI0
aI1
aI12
aI0
aI12
aI4
aI13
aa(lp131
I23
aI0
aF1.0
aF1.0
aI12
aI19
aF1.0
aI12
aI12
aI11
aI0
aI1
aI11
aI0
aI12
aI3
aI12
aa(lp132
I23
aI0
aF1.0
aF1.0
aI12
aI18
aF1.0
aI12
aI12
aI11
aI0
aI1
aI10
aI0
aI12
aI2
aI11
aa(lp133
I23
aI0
aF1.0
aF1.0
aI12
aI17
aF1.0
aI12
aI12
aI11
aI0
aI0
aI8
aI0
aI12
aI1
aI10
aa(lp134
I23
aI0
aF1.0
aF1.0
aI11
aI16
aF1.0
aI11
aI11
aI12
aI0
aI0
aI7
aI0
aI11
aI6
aI9
aa(lp135
I23
aI0
aF1.0
aF1.0
aI11
aI17
aF1.0
aI11
aI11
aI12
aI0
aI0
aI7
aI0
aI11
aI6
aI8
aa(lp136
I23
aI0
aF1.0
aF1.0
aI11
aI18
aF1.0
aI11
aI11
aI12
aI0
aI0
aI7
aI0
aI11
aI5
aI7
aa(lp137
I23
aI0
aF1.0
aF1.0
aI11
aI19
aF1.0
aI11
aI11
aI12
aI0
aI0
aI7
aI0
aI11
aI4
aI6
aa(lp138
I23
aI0
aF1.0
aF1.0
aI11
aI20
aF1.0
aI11
aI11
aI12
aI0
aI0
aI7
aI0
aI11
aI3
aI5
aa(lp139
I23
aI0
aF1.0
aF1.0
aI11
aI21
aF1.0
aI11
aI11
aI12
aI0
aI0
aI9
aI0
aI11
aI4
aI6
aa(lp140
I23
aI0
aF1.0
aF1.0
aI11
aI22
aF1.0
aI11
aI11
aI12
aI0
aI0
aI11
aI0
aI11
aI4
aI7
aa(lp141
I23
aI0
aF1.0
aF1.0
aI10
aI23
aF1.0
aI10
aI10
aI13
aI0
aI0
aI13
aI0
aI10
aI3
aI9
aa(lp142
I23
aI0
aF1.0
aF1.0
aI10
aI16
aF1.0
aI10
aI10
aI13
aI0
aI1
aI30
aI0
aI10
aI30
aI32
aa(lp143
I23
aI0
aF1.0
aF1.0
aI10
aI15
aF1.0
aI10
aI10
aI13
aI0
aI1
aI28
aI0
aI10
aI29
aI31
aa(lp144
I23
aI0
aF1.0
aF1.0
aI10
aI14
aF1.0
aI10
aI10
aI13
aI0
aI1
aI26
aI0
aI10
aI28
aI30
aa(lp145
I23
aI0
aF1.0
aF1.0
aI10
aI13
aF1.0
aI10
aI10
aI13
aI0
aI1
aI24
aI0
aI10
aI27
aI29
aa(lp146
I23
aI0
aF1.0
aF1.0
aI10
aI12
aF1.0
aI10
aI10
aI13
aI0
aI1
aI24
aI0
aI10
aI26
aI28
aa(lp147
I23
aI0
aF1.0
aF1.0
aI10
aI11
aF1.0
aI10
aI10
aI13
aI0
aI1
aI24
aI0
aI10
aI25
aI27
aa(lp148
I23
aI0
aF1.0
aF1.0
aI9
aI10
aF1.0
aI9
aI9
aI14
aI0
aI1
aI24
aI0
aI9
aI24
aI27
aa(lp149
I23
aI0
aF1.0
aF1.0
aI9
aI9
aF1.0
aI9
aI9
aI14
aI0
aI1
aI24
aI0
aI9
aI23
aI26
aa(lp150
I23
aI0
aF1.0
aF1.0
aI9
aI8
aF1.0
aI9
aI9
aI14
aI0
aI1
aI22
aI0
aI9
aI22
aI25
aa(lp151
I23
aI0
aF1.0
aF1.0
aI9
aI7
aF1.0
aI9
aI9
aI14
aI0
aI1
aI20
aI0
aI9
aI21
aI24
aa(lp152
I23
aI0
aF1.0
aF1.0
aI9
aI6
aF1.0
aI9
aI9
aI14
aI0
aI1
aI18
aI0
aI9
aI20
aI23
aa(lp153
I23
aI0
aF1.0
aF1.0
aI9
aI7
aF1.0
aI9
aI9
aI14
aI0
aI2
aI18
aI0
aI9
aI21
aI24
aa(lp154
I23
aI0
aF1.0
aF1.0
aI9
aI8
aF1.0
aI9
aI9
aI14
aI0
aI2
aI20
aI0
aI9
aI22
aI25
aa(lp155
I23
aI0
aF1.0
aF1.0
aI9
aI9
aF1.0
aI9
aI9
aI14
aI0
aI2
aI20
aI0
aI9
aI21
aI24
aa(lp156
I23
aI0
aF1.0
aF1.0
aI9
aI10
aF1.0
aI9
aI9
aI14
aI0
aI2
aI19
aI0
aI9
aI20
aI23
aa(lp157
I23
aI0
aF1.0
aF1.0
aI9
aI9
aF1.0
aI9
aI9
aI14
aI0
aI2
aI17
aI0
aI9
aI19
aI22
aa(lp158
I23
aI1
aF1.0
aF1.0
aI9
aI8
aF1.0
aI9
aI9
aI14
aI0
aI2
aI15
aI16
aI9
aI18
aI21
aa(lp159
I23
aI1
aF1.0
aF1.0
aI9
aI7
aF1.0
aI9
aI9
aI14
aI0
aI2
aI15
aI16
aI9
aI17
aI20
aa(lp160
I23
aI1
aF1.0
aF1.0
aI9
aI8
aF1.0
aI9
aI9
aI14
aI0
aI2
aI15
aI16
aI9
aI16
aI19
aa(lp161
I23
aI1
aF1.0
aF1.0
aI9
aI9
aF1.0
aI9
aI9
aI14
aI0
aI2
aI15
aI16
aI9
aI15
aI18
aa(lp162
I23
aI1
aF1.0
aF1.0
aI9
aI10
aF1.0
aI9
aI9
aI14
aI0
aI2
aI15
aI16
aI9
aI14
aI17
aa(lp163
I23
aI1
aF1.0
aF1.0
aI9
aI9
aF1.0
aI9
aI9
aI14
aI0
aI2
aI15
aI16
aI9
aI13
aI16
aa(lp164
I23
aI1
aF1.0
aF1.0
aI9
aI8
aF1.0
aI9
aI9
aI14
aI0
aI2
aI15
aI16
aI9
aI12
aI15
aa(lp165
I23
aI1
aF1.0
aF1.0
aI9
aI7
aF1.0
aI9
aI9
aI14
aI0
aI2
aI15
aI16
aI9
aI11
aI14
aa(lp166
I22
aI1
aF1.0
aF1.0
aI9
aI6
aF1.0
aI9
aI9
aI13
aI0
aI2
aI15
aI16
aI9
aI10
aI13
aa(lp167
I22
aI0
aF1.0
aF1.0
aI9
aI7
aF1.0
aI9
aI9
aI13
aI0
aI2
aI15
aI0
aI9
aI9
aI12
aa(lp168
I22
aI0
aF1.0
aF1.0
aI9
aI8
aF1.0
aI9
aI9
aI13
aI0
aI2
aI13
aI0
aI9
aI8
aI11
aa(lp169
I22
aI0
aF1.0
aF1.0
aI9
aI9
aF1.0
aI9
aI9
aI13
aI0
aI2
aI11
aI0
aI9
aI7
aI10
aa(lp170
I22
aI0
aF1.0
aF1.0
aI9
aI10
aF1.0
aI9
aI9
aI13
aI0
aI2
aI9
aI0
aI9
aI8
aI9
aa(lp171
I22
aI0
aF1.0
aF1.0
aI9
aI11
aF1.0
aI9
aI9
aI13
aI0
aI2
aI7
aI0
aI9
aI9
aI8
aa(lp172
I22
aI0
aF1.0
aF1.0
aI9
aI12
aF1.0
aI9
aI9
aI13
aI0
aI2
aI5
aI0
aI9
aI8
aI7
aa(lp173
I22
aI0
aF1.0
aF1.0
aI9
aI13
aF1.0
aI9
aI9
aI13
aI0
aI2
aI3
aI0
aI9
aI7
aI6
aa(lp174
I22
aI0
aF1.0
aF1.0
aI9
aI12
aF1.0
aI9
aI9
aI13
aI0
aI2
aI3
aI0
aI9
aI8
aI7
aa(lp175
I22
aI0
aF1.0
aF1.0
aI9
aI11
aF1.0
aI9
aI9
aI13
aI0
aI1
aI5
aI0
aI9
aI9
aI8
aa(lp176
I22
aI0
aF1.0
aF1.0
aI9
aI10
aF1.0
aI9
aI9
aI13
aI0
aI1
aI6
aI0
aI9
aI8
aI9
aa(lp177
I22
aI0
aF1.0
aF1.0
aI9
aI9
aF1.0
aI9
aI9
aI13
aI0
aI1
aI7
aI0
aI9
aI7
aI10
aa(lp178
I22
aI0
aF1.0
aF1.0
aI9
aI10
aF1.0
aI9
aI9
aI13
aI0
aI1
aI6
aI0
aI9
aI8
aI9
aa(lp179
I22
aI0
aF1.0
aF1.0
aI9
aI11
aF1.0
aI9
aI9
aI13
aI0
aI1
aI5
aI0
aI9
aI9
aI8
aa(lp180
I22
aI0
aF1.0
aF1.0
aI9
aI10
aF1.0
aI9
aI9
aI13
aI0
aI1
aI6
aI0
aI9
aI8
aI9
aa(lp181
I22
aI0
aF1.0
aF1.0
aI9
aI9
aF1.0
aI9
aI9
aI13
aI0
aI1
aI7
aI0
aI9
aI7
aI10
aa(lp182
I22
aI0
aF1.0
aF1.0
aI9
aI8
aF1.0
aI9
aI9
aI13
aI0
aI1
aI8
aI0
aI9
aI8
aI11
aa(lp183
I22
aI0
aF1.0
aF1.0
aI9
aI9
aF1.0
aI9
aI9
aI13
aI0
aI2
aI6
aI0
aI9
aI7
aI10
aa(lp184
I22
aI0
aF1.0
aF1.0
aI9
aI10
aF1.0
aI9
aI9
aI13
aI0
aI2
aI6
aI0
aI9
aI8
aI9
aa(lp185
I22
aI0
aF1.0
aF1.0
aI9
aI11
aF1.0
aI9
aI9
aI13
aI0
aI2
aI6
aI0
aI9
aI9
aI8
aa(lp186
I22
aI0
aF1.0
aF1.0
aI9
aI12
aF1.0
aI9
aI9
aI13
aI0
aI2
aI6
aI0
aI9
aI8
aI7
aa(lp187
I22
aI0
aF1.0
aF1.0
aI9
aI13
aF1.0
aI9
aI9
aI13
aI0
aI2
aI6
aI0
aI9
aI7
aI6
aa(lp188
I22
aI1
aF1.0
aF1.0
aI9
aI12
aF1.0
aI9
aI9
aI13
aI0
aI2
aI8
aI3
aI9
aI8
aI7
aa(lp189
I22
aI1
aF1.0
aF1.0
aI9
aI11
aF1.0
aI9
aI9
aI13
aI0
aI2
aI10
aI3
aI9
aI9
aI8
aa(lp190
I22
aI1
aF1.0
aF1.0
aI9
aI10
aF1.0
aI9
aI9
aI13
aI0
aI2
aI10
aI3
aI9
aI8
aI9
aa(lp191
I22
aI1
aF1.0
aF1.0
aI9
aI9
aF1.0
aI9
aI9
aI13
aI0
aI2
aI10
aI3
aI9
aI7
aI10
aa(lp192
I22
aI1
aF1.0
aF1.0
aI9
aI10
aF1.0
aI9
aI9
aI13
aI0
aI1
aI10
aI5
aI9
aI6
aI9
aa(lp193
I22
aI1
aF1.0
aF1.0
aI9
aI11
aF1.0
aI9
aI9
aI13
aI0
aI1
aI10
aI11
aI9
aI5
aI8
aa(lp194
I22
aI1
aF1.0
aF1.0
aI9
aI12
aF1.0
aI9
aI9
aI13
aI0
aI1
aI10
aI19
aI9
aI4
aI7
aa(lp195
I22
aI1
aF1.0
aF1.0
aI9
aI13
aF1.0
aI9
aI9
aI13
aI0
aI1
aI10
aI11
aI9
aI3
aI6
aa(lp196
I22
aI1
aF1.0
aF1.0
aI9
aI14
aF1.0
aI9
aI9
aI13
aI0
aI1
aI10
aI12
aI9
aI4
aI7
aa(lp197
I21
aI1
aF1.0
aF1.0
aI9
aI16
aF1.0
aI9
aI9
aI12
aI0
aI1
aI10
aI13
aI9
aI5
aI8
aa(lp198
I21
aI1
aF1.0
aF1.0
aI9
aI17
aF1.0
aI9
aI9
aI12
aI0
aI1
aI10
aI14
aI9
aI6
aI9
aa(lp199
I20
aI1
aF1.0
aF1.0
aI9
aI18
aF1.0
aI9
aI9
aI11
aI0
aI1
aI10
aI15
aI9
aI6
aI8
aa(lp200
I20
aI1
aF1.0
aF1.0
aI9
aI19
aF1.0
aI9
aI9
aI11
aI0
aI1
aI10
aI16
aI9
aI5
aI7
aa(lp201
I20
aI1
aF1.0
aF1.0
aI9
aI20
aF1.0
aI9
aI9
aI11
aI0
aI1
aI10
aI23
aI9
aI4
aI6
aa(lp202
I20
aI1
aF1.0
aF1.0
aI9
aI21
aF1.0
aI9
aI9
aI11
aI0
aI1
aI12
aI31
aI9
aI3
aI5
aa(lp203
I20
aI1
aF1.0
aF1.0
aI9
aI22
aF1.0
aI9
aI9
aI11
aI0
aI1
aI14
aI25
aI9
aI4
aI6
aa(lp204
I19
aI1
aF1.0
aF1.0
aI9
aI23
aF1.0
aI9
aI9
aI10
aI0
aI1
aI16
aI36
aI9
aI4
aI7
aa(lp205
I19
aI1
aF1.0
aF1.0
aI9
aI24
aF1.0
aI9
aI9
aI10
aI0
aI1
aI18
aI31
aI9
aI3
aI8
aa(lp206
I18
aI1
aF1.0
aF1.0
aI9
aI25
aF1.0
aI9
aI9
aI9
aI0
aI1
aI20
aI35
aI9
aI2
aI9
aa(lp207
I18
aI1
aF1.0
aF1.0
aI9
aI26
aF1.0
aI9
aI9
aI9
aI0
aI1
aI22
aI36
aI9
aI1
aI10
aa(lp208
I18
aI1
aF1.0
aF1.0
aI8
aI27
aF1.0
aI8
aI8
aI10
aI0
aI1
aI24
aI34
aI8
aI1
aI12
aa(lp209
I18
aI1
aF1.0
aF1.0
aI7
aI28
aF1.0
aI7
aI7
aI11
aI0
aI1
aI26
aI35
aI7
aI10
aI14
aa(lp210
I17
aI1
aF1.0
aF1.0
aI7
aI26
aF1.0
aI7
aI7
aI10
aI0
aI1
aI26
aI37
aI7
aI9
aI13
aa(lp211
I17
aI1
aF1.0
aF1.0
aI7
aI16
aF1.0
aI7
aI7
aI10
aI0
aI2
aI17
aI13
aI7
aI30
aI31
aa(lp212
I17
aI1
aF1.0
aF1.0
aI7
aI16
aF1.0
aI7
aI7
aI10
aI0
aI2
aI16
aI15
aI7
aI30
aI31
aa(lp213
I17
aI1
aF1.0
aF1.0
aI7
aI16
aF1.0
aI7
aI7
aI10
aI0
aI2
aI15
aI16
aI7
aI30
aI31
aa(lp214
I17
aI1
aF1.0
aF1.0
aI7
aI16
aF1.0
aI7
aI7
aI10
aI0
aI2
aI14
aI17
aI7
aI30
aI31
aa(lp215
I16
aI1
aF1.0
aF1.0
aI7
aI16
aF1.0
aI7
aI7
aI9
aI0
aI2
aI13
aI18
aI7
aI30
aI31
aa(lp216
I15
aI1
aF1.0
aF1.0
aI7
aI17
aF1.0
aI7
aI7
aI8
aI0
aI2
aI12
aI13
aI7
aI30
aI31
aa(lp217
I14
aI1
aF1.0
aF1.0
aI7
aI23
aF1.0
aI7
aI7
aI7
aI0
aI2
aI13
aI13
aI7
aI30
aI31
aa(lp218
I14
aI1
aF1.0
aF1.0
aI7
aI23
aF1.0
aI7
aI7
aI7
aI0
aI2
aI13
aI13
aI7
aI30
aI31
aa(lp219
I14
aI1
aF1.0
aF1.0
aI7
aI23
aF1.0
aI7
aI7
aI7
aI0
aI2
aI12
aI13
aI7
aI30
aI31
aa(lp220
I14
aI1
aF1.0
aF1.0
aI7
aI23
aF1.0
aI7
aI7
aI7
aI0
aI2
aI13
aI17
aI7
aI30
aI31
aa(lp221
I14
aI1
aF1.0
aF1.0
aI7
aI23
aF1.0
aI7
aI7
aI7
aI0
aI2
aI14
aI16
aI7
aI30
aI31
aa(lp222
I14
aI1
aF1.0
aF1.0
aI7
aI23
aF1.0
aI7
aI7
aI7
aI0
aI2
aI14
aI15
aI7
aI30
aI31
aa(lp223
I14
aI1
aF1.0
aF1.0
aI7
aI23
aF1.0
aI7
aI7
aI7
aI0
aI2
aI14
aI15
aI7
aI30
aI31
aa(lp224
I14
aI1
aF1.0
aF1.0
aI7
aI23
aF1.0
aI7
aI7
aI7
aI0
aI2
aI14
aI15
aI7
aI30
aI31
aa(lp225
I14
aI1
aF1.0
aF1.0
aI7
aI22
aF1.0
aI7
aI7
aI7
aI0
aI2
aI13
aI14
aI7
aI29
aI30
aa(lp226
I14
aI1
aF1.0
aF1.0
aI7
aI21
aF1.0
aI7
aI7
aI7
aI0
aI2
aI12
aI13
aI7
aI28
aI29
aa(lp227
I14
aI1
aF1.0
aF1.0
aI7
aI20
aF1.0
aI7
aI7
aI7
aI0
aI2
aI11
aI12
aI7
aI27
aI28
aa(lp228
I14
aI1
aF1.0
aF1.0
aI7
aI20
aF1.0
aI7
aI7
aI7
aI0
aI2
aI11
aI12
aI7
aI27
aI28
aa(lp229
I14
aI1
aF1.0
aF1.0
aI7
aI20
aF1.0
aI7
aI7
aI7
aI0
aI2
aI11
aI12
aI7
aI27
aI28
aa(lp230
I14
aI1
aF1.0
aF1.0
aI7
aI20
aF1.0
aI7
aI7
aI7
aI0
aI2
aI11
aI12
aI7
aI27
aI28
aa(lp231
I14
aI1
aF1.0
aF1.0
aI7
aI20
aF1.0
aI7
aI7
aI7
aI0
aI2
aI11
aI12
aI7
aI27
aI28
aa(lp232
I14
aI1
aF1.0
aF1.0
aI7
aI19
aF1.0
aI7
aI7
aI7
aI0
aI2
aI10
aI11
aI7
aI26
aI27
aa(lp233
I14
aI1
aF1.0
aF1.0
aI7
aI18
aF1.0
aI7
aI7
aI7
aI0
aI2
aI9
aI10
aI7
aI25
aI26
aa(lp234
I14
aI1
aF1.0
aF1.0
aI7
aI17
aF1.0
aI7
aI7
aI7
aI0
aI2
aI8
aI9
aI7
aI24
aI25
aa(lp235
I14
aI1
aF1.0
aF1.0
aI7
aI17
aF1.0
aI7
aI7
aI7
aI0
aI2
aI8
aI9
aI7
aI24
aI25
aa(lp236
I14
aI1
aF1.0
aF1.0
aI7
aI16
aF1.0
aI7
aI7
aI7
aI0
aI2
aI7
aI8
aI7
aI23
aI24
aa(lp237
I14
aI1
aF1.0
aF1.0
aI7
aI15
aF1.0
aI7
aI7
aI7
aI0
aI2
aI6
aI7
aI7
aI22
aI23
aa(lp238
I14
aI1
aF1.0
aF1.0
aI7
aI14
aF1.0
aI7
aI7
aI7
aI0
aI2
aI5
aI6
aI7
aI21
aI22
aa(lp239
I14
aI1
aF1.0
aF1.0
aI7
aI13
aF1.0
aI7
aI7
aI7
aI0
aI2
aI4
aI5
aI7
aI20
aI21
aa(lp240
I14
aI1
aF1.0
aF1.0
aI7
aI12
aF1.0
aI7
aI7
aI7
aI0
aI2
aI5
aI6
aI7
aI19
aI20
aa(lp241
I14
aI1
aF1.0
aF1.0
aI7
aI11
aF1.0
aI7
aI7
aI7
aI0
aI2
aI6
aI7
aI7
aI18
aI19
aa(lp242
I14
aI1
aF1.0
aF1.0
aI7
aI10
aF1.0
aI7
aI7
aI7
aI0
aI2
aI7
aI8
aI7
aI17
aI18
aa(lp243
I14
aI1
aF1.0
aF1.0
aI7
aI9
aF1.0
aI7
aI7
aI7
aI0
aI2
aI8
aI9
aI7
aI16
aI17
aa(lp244
I14
aI1
aF1.0
aF1.0
aI7
aI8
aF1.0
aI7
aI7
aI7
aI0
aI2
aI9
aI10
aI7
aI17
aI18
aa(lp245
I14
aI1
aF1.0
aF1.0
aI7
aI9
aF1.0
aI7
aI7
aI7
aI0
aI2
aI10
aI11
aI7
aI16
aI17
aa(lp246
I14
aI1
aF1.0
aF1.0
aI7
aI9
aF1.0
aI7
aI7
aI7
aI0
aI2
aI10
aI11
aI7
aI16
aI17
aa(lp247
I14
aI1
aF1.0
aF1.0
aI7
aI9
aF1.0
aI7
aI7
aI7
aI0
aI2
aI10
aI11
aI7
aI16
aI17
aa(lp248
I14
aI1
aF1.0
aF1.0
aI7
aI9
aF1.0
aI7
aI7
aI7
aI0
aI2
aI10
aI11
aI7
aI16
aI17
aa(lp249
I14
aI1
aF1.0
aF1.0
aI7
aI10
aF1.0
aI7
aI7
aI7
aI0
aI2
aI9
aI10
aI7
aI15
aI16
aa(lp250
I14
aI1
aF1.0
aF1.0
aI7
aI11
aF1.0
aI7
aI7
aI7
aI0
aI2
aI10
aI11
aI7
aI14
aI15
aa(lp251
I14
aI1
aF1.0
aF1.0
aI7
aI12
aF1.0
aI7
aI7
aI7
aI0
aI2
aI11
aI12
aI7
aI13
aI14
aa(lp252
I14
aI1
aF1.0
aF1.0
aI7
aI13
aF1.0
aI7
aI7
aI7
aI0
aI2
aI12
aI13
aI7
aI12
aI13
aa(lp253
I14
aI1
aF1.0
aF1.0
aI7
aI14
aF1.0
aI7
aI7
aI7
aI0
aI2
aI13
aI14
aI7
aI11
aI12
aa(lp254
I14
aI1
aF1.0
aF1.0
aI7
aI15
aF1.0
aI7
aI7
aI7
aI0
aI2
aI14
aI15
aI7
aI10
aI11
aa(lp255
I14
aI1
aF1.0
aF1.0
aI7
aI16
aF1.0
aI7
aI7
aI7
aI0
aI2
aI15
aI16
aI7
aI9
aI10
aa(lp256
I14
aI1
aF1.0
aF1.0
aI7
aI17
aF1.0
aI7
aI7
aI7
aI0
aI2
aI16
aI17
aI7
aI8
aI9
aa(lp257
I14
aI1
aF1.0
aF1.0
aI7
aI18
aF1.0
aI7
aI7
aI7
aI0
aI2
aI17
aI18
aI7
aI7
aI8
aa(lp258
I14
aI1
aF1.0
aF1.0
aI7
aI19
aF1.0
aI7
aI7
aI7
aI0
aI2
aI18
aI19
aI7
aI8
aI7
aa(lp259
I14
aI1
aF1.0
aF1.0
aI7
aI18
aF1.0
aI7
aI7
aI7
aI0
aI2
aI19
aI20
aI7
aI9
aI6
aa(lp260
I14
aI1
aF1.0
aF1.0
aI7
aI17
aF1.0
aI7
aI7
aI7
aI0
aI2
aI20
aI21
aI7
aI8
aI5
aa(lp261
I14
aI1
aF1.0
aF1.0
aI7
aI18
aF1.0
aI7
aI7
aI7
aI0
aI1
aI21
aI22
aI7
aI7
aI4
aa(lp262
I14
aI1
aF1.0
aF1.0
aI7
aI18
aF1.0
aI7
aI7
aI7
aI0
aI1
aI21
aI22
aI7
aI7
aI4
aa(lp263
I14
aI1
aF1.0
aF1.0
aI7
aI17
aF1.0
aI7
aI7
aI7
aI0
aI1
aI22
aI23
aI7
aI6
aI3
aa(lp264
I14
aI1
aF1.0
aF1.0
aI7
aI16
aF1.0
aI7
aI7
aI7
aI0
aI1
aI23
aI24
aI7
aI7
aI4
aa(lp265
I14
aI1
aF1.0
aF1.0
aI7
aI15
aF1.0
aI7
aI7
aI7
aI0
aI1
aI24
aI25
aI7
aI8
aI5
aa(lp266
I14
aI1
aF1.0
aF1.0
aI7
aI15
aF1.0
aI7
aI7
aI7
aI0
aI1
aI24
aI25
aI7
aI8
aI5
aa(lp267
I14
aI1
aF1.0
aF1.0
aI7
aI16
aF1.0
aI7
aI7
aI7
aI0
aI1
aI23
aI24
aI7
aI7
aI4
aa(lp268
I14
aI1
aF1.0
aF1.0
aI7
aI17
aF1.0
aI7
aI7
aI7
aI0
aI1
aI22
aI23
aI7
aI6
aI3
aa(lp269
I14
aI1
aF1.0
aF1.0
aI7
aI18
aF1.0
aI7
aI7
aI7
aI0
aI1
aI23
aI24
aI7
aI5
aI2
aa(lp270
I14
aI1
aF1.0
aF1.0
aI7
aI19
aF1.0
aI7
aI7
aI7
aI0
aI1
aI24
aI25
aI7
aI4
aI1
aa(lp271
I14
aI1
aF1.0
aF1.0
aI7
aI20
aF1.0
aI7
aI7
aI7
aI0
aI1
aI25
aI26
aI7
aI3
aI0
aa(lp272
I14
aI1
aF1.0
aF1.0
aI7
aI21
aF1.0
aI7
aI7
aI7
aI0
aI1
aI26
aI27
aI7
aI3
aI1
aa(lp273
I14
aI1
aF1.0
aF1.0
aI7
aI22
aF1.0
aI7
aI7
aI7
aI0
aI1
aI27
aI28
aI7
aI2
aI2
aa(lp274
I14
aI1
aF1.0
aF1.0
aI7
aI23
aF1.0
aI7
aI7
aI7
aI0
aI1
aI28
aI29
aI7
aI1
aI3
aa(lp275
I14
aI1
aF1.0
aF1.0
aI6
aI24
aF1.0
aI6
aI6
aI8
aI0
aI1
aI29
aI30
aI6
aI2
aI4
aa(lp276
I14
aI1
aF1.0
aF1.0
aI6
aI25
aF1.0
aI6
aI6
aI8
aI0
aI1
aI30
aI31
aI6
aI1
aI5
aa(lp277
I14
aI1
aF1.0
aF1.0
aI5
aI26
aF1.0
aI5
aI5
aI9
aI0
aI1
aI31
aI32
aI5
aI4
aI6
aa(lp278
I14
aI1
aF1.0
aF1.0
aI5
aI25
aF1.0
aI5
aI5
aI9
aI0
aI1
aI30
aI31
aI5
aI3
aI5
aa(lp279
I14
aI1
aF1.0
aF1.0
aI5
aI24
aF1.0
aI5
aI5
aI9
aI0
aI1
aI29
aI30
aI5
aI4
aI4
aa(lp280
I14
aI1
aF1.0
aF1.0
aI5
aI23
aF1.0
aI5
aI5
aI9
aI0
aI1
aI28
aI29
aI5
aI5
aI3
aa(lp281
I14
aI1
aF1.0
aF1.0
aI5
aI22
aF1.0
aI5
aI5
aI9
aI0
aI1
aI27
aI28
aI5
aI5
aI2
aa(lp282
I14
aI1
aF1.0
aF1.0
aI5
aI23
aF1.0
aI5
aI5
aI9
aI0
aI1
aI28
aI29
aI5
aI5
aI3
aa(lp283
I14
aI1
aF1.0
aF1.0
aI5
aI24
aF1.0
aI5
aI5
aI9
aI0
aI1
aI29
aI30
aI5
aI4
aI4
aa(lp284
I14
aI1
aF1.0
aF1.0
aI5
aI25
aF1.0
aI5
aI5
aI9
aI0
aI1
aI30
aI31
aI5
aI3
aI5
aa(lp285
I14
aI1
aF1.0
aF1.0
aI5
aI26
aF1.0
aI5
aI5
aI9
aI0
aI1
aI31
aI32
aI5
aI2
aI6
aa(lp286
I14
aI1
aF1.0
aF1.0
aI5
aI27
aF1.0
aI5
aI5
aI9
aI0
aI1
aI32
aI33
aI5
aI1
aI7
aa(lp287
I14
aI1
aF1.0
aF1.0
aI5
aI27
aF1.0
aI5
aI5
aI9
aI0
aI1
aI32
aI33
aI5
aI1
aI7
aa(lp288
I14
aI1
aF1.0
aF1.0
aI5
aI28
aF1.0
aI5
aI5
aI9
aI0
aI1
aI33
aI34
aI5
aI2
aI8
aa(lp289
I14
aI1
aF1.0
aF1.0
aI5
aI27
aF1.0
aI5
aI5
aI9
aI0
aI1
aI32
aI33
aI5
aI1
aI7
aa(lp290
I14
aI1
aF1.0
aF1.0
aI4
aI28
aF1.0
aI4
aI4
aI10
aI0
aI1
aI33
aI34
aI4
aI5
aI12
aa(lp291
I14
aI1
aF1.0
aF1.0
aI4
aI28
aF1.0
aI4
aI4
aI10
aI0
aI1
aI33
aI34
aI4
aI5
aI12
aa(lp292
I14
aI1
aF1.0
aF1.0
aI4
aI27
aF1.0
aI4
aI4
aI10
aI0
aI1
aI32
aI33
aI4
aI4
aI11
aa(lp293
I14
aI1
aF1.0
aF1.0
aI4
aI28
aF1.0
aI4
aI4
aI10
aI0
aI1
aI33
aI34
aI4
aI3
aI12
aa(lp294
I14
aI1
aF1.0
aF1.0
aI4
aI29
aF1.0
aI4
aI4
aI10
aI0
aI1
aI34
aI35
aI4
aI2
aI13
aa(lp295
I14
aI1
aF1.0
aF1.0
aI4
aI30
aF1.0
aI4
aI4
aI10
aI0
aI1
aI35
aI36
aI4
aI1
aI14
aa(lp296
I14
aI1
aF1.0
aF1.0
aI3
aI31
aF1.0
aI3
aI3
aI11
aI0
aI1
aI36
aI37
aI3
aI1
aI14
aa.