(lp0
(lp1
I30
aI0
aF1.0
aF1.0
aI30
aI26
aF1.0
aI30
aI30
aI0
aI32
aI2
aI1
aI0
aI30
aI25
aI33
aa(lp2
I30
aI0
aF1.0
aF1.0
aI30
aI27
aF1.0
aI30
aI30
aI0
aI33
aI2
aI0
aI0
aI30
aI26
aI34
aa(lp3
I30
aI0
aF1.0
aF1.0
aI30
aI28
aF1.0
aI30
aI30
aI0
aI34
aI2
aI2
aI0
aI30
aI27
aI35
aa(lp4
I30
aI0
aF1.0
aF1.0
aI30
aI27
aF1.0
aI30
aI30
aI0
aI33
aI2
aI2
aI0
aI30
aI26
aI34
aa(lp5
I30
aI0
aF1.0
aF1.0
aI30
aI26
aF1.0
aI30
aI30
aI0
aI32
aI2
aI2
aI0
aI30
aI25
aI33
aa(lp6
I30
aI0
aF1.0
aF1.0
aI30
aI25
aF1.0
aI30
aI30
aI0
aI31
aI2
aI2
aI0
aI30
aI24
aI32
aa(lp7
I30
aI0
aF1.0
aF1.0
aI30
aI24
aF1.0
aI30
aI30
aI0
aI30
aI2
aI2
aI0
aI30
aI23
aI31
aa(lp8
I30
aI0
aF1.0
aF1.0
aI30
aI23
aF1.0
aI30
aI30
aI0
aI29
aI2
aI2
aI0
aI30
aI22
aI30
aa(lp9
I30
aI0
aF1.0
aF1.0
aI30
aI23
aF1.0
aI30
aI30
aI0
aI29
aI2
aI3
aI0
aI30
aI22
aI30
aa(lp10
I30
aI0
aF1.0
aF1.0
aI30
aI23
aF1.0
aI30
aI30
aI0
aI29
aI2
aI4
aI0
aI30
aI22
aI30
aa(lp11
I30
aI0
aF1.0
aF1.0
aI30
aI22
aF1.0
aI30
aI30
aI0
aI28
aI2
aI3
aI0
aI30
aI21
aI29
aa(lp12
I30
aI0
aF1.0
aF1.0
aI30
aI21
aF1.0
aI30
aI30
aI0
aI27
aI2
aI3
aI0
aI30
aI20
aI28
aa(lp13
I30
aI0
aF1.0
aF1.0
aI30
aI20
aF1.0
aI30
aI30
aI0
aI26
aI2
aI3
aI0
aI30
aI19
aI27
aa(lp14
I30
aI0
aF1.0
aF1.0
aI30
aI19
aF1.0
aI30
aI30
aI0
aI25
aI2
aI3
aI0
aI30
aI18
aI26
aa(lp15
I30
aI0
aF1.0
aF1.0
aI30
aI18
aF1.0
aI30
aI30
aI0
aI24
aI2
aI2
aI0
aI30
aI17
aI25
aa(lp16
I30
aI0
aF1.0
aF1.0
aI30
aI18
aF1.0
aI30
aI30
aI0
aI24
aI2
aI3
aI0
aI30
aI17
aI25
aa(lp17
I30
aI0
aF1.0
aF1.0
aI30
aI17
aF1.0
aI30
aI30
aI0
aI23
aI2
aI2
aI0
aI30
aI16
aI24
aa(lp18
I30
aI0
aF1.0
aF1.0
aI30
aI16
aF1.0
aI30
aI30
aI0
aI22
aI2
aI2
aI0
aI30
aI15
aI23
aa(lp19
I30
aI0
aF1.0
aF1.0
aI30
aI16
aF1.0
aI30
aI30
aI0
aI22
aI2
aI3
aI0
aI30
aI15
aI23
aa(lp20
I30
aI0
aF1.0
aF1.0
aI30
aI16
aF1.0
aI30
aI30
aI0
aI22
aI2
aI3
aI0
aI30
aI15
aI23
aa(lp21
I30
aI0
aF1.0
aF1.0
aI30
aI16
aF1.0
aI30
aI30
aI0
aI22
aI2
aI3
aI0
aI30
aI15
aI23
aa(lp22
I30
aI1
aF1.0
aF1.0
aI30
aI15
aF1.0
aI30
aI30
aI0
aI21
aI2
aI2
aI32
aI30
aI14
aI22
aa(lp23
I30
aI1
aF1.0
aF1.0
aI30
aI15
aF1.0
aI30
aI30
aI0
aI21
aI2
aI2
aI31
aI30
aI14
aI22
aa(lp24
I30
aI1
aF1.0
aF1.0
aI30
aI14
aF1.0
aI30
aI30
aI0
aI20
aI2
aI2
aI30
aI30
aI13
aI21
aa(lp25
I30
aI1
aF1.0
aF1.0
aI30
aI13
aF1.0
aI30
aI30
aI0
aI19
aI2
aI1
aI29
aI30
aI12
aI20
aa(lp26
I29
aI1
aF1.0
aF1.0
aI30
aI12
aF1.0
aI30
aI30
aI-1
aI18
aI2
aI1
aI28
aI30
aI11
aI19
aa(lp27
I28
aI1
aF1.0
aF1.0
aI30
aI11
aF1.0
aI30
aI30
aI-2
aI17
aI2
aI1
aI20
aI30
aI10
aI18
aa(lp28
I28
aI1
aF1.0
aF1.0
aI30
aI10
aF1.0
aI30
aI30
aI-2
aI16
aI2
aI1
aI19
aI30
aI9
aI17
aa(lp29
I28
aI1
aF1.0
aF1.0
aI30
aI9
aF1.0
aI30
aI30
aI-2
aI15
aI2
aI1
aI18
aI30
aI8
aI16
aa(lp30
I28
aI1
aF1.0
aF1.0
aI30
aI8
aF1.0
aI30
aI30
aI-2
aI16
aI2
aI3
aI19
aI30
aI9
aI17
aa(lp31
I28
aI1
aF1.0
aF1.0
aI30
aI7
aF1.0
aI30
aI30
aI-2
aI17
aI2
aI5
aI20
aI30
aI10
aI16
aa(lp32
I28
aI1
aF1.0
aF1.0
aI30
aI6
aF1.0
aI30
aI30
aI-2
aI18
aI1
aI7
aI12
aI30
aI11
aI15
aa(lp33
I27
aI1
aF1.0
aF1.0
aI30
aI5
aF1.0
aI30
aI30
aI-3
aI17
aI1
aI7
aI11
aI30
aI10
aI14
aa(lp34
I26
aI1
aF1.0
aF1.0
aI30
aI4
aF1.0
aI30
aI30
aI-4
aI16
aI1
aI9
aI16
aI30
aI10
aI13
aa(lp35
I26
aI1
aF1.0
aF1.0
aI30
aI5
aF1.0
aI30
aI30
aI-4
aI15
aI1
aI11
aI15
aI30
aI9
aI12
aa(lp36
I26
aI1
aF1.0
aF1.0
aI29
aI6
aF1.0
aI29
aI29
aI-3
aI14
aI1
aI11
aI16
aI29
aI8
aI11
aa(lp37
I26
aI1
aF1.0
aF1.0
aI28
aI7
aF1.0
aI28
aI28
aI-2
aI13
aI1
aI13
aI13
aI28
aI7
aI10
aa(lp38
I26
aI1
aF1.0
aF1.0
aI28
aI8
aF1.0
aI28
aI28
aI-2
aI14
aI1
aI13
aI12
aI28
aI8
aI11
aa(lp39
I26
aI1
aF1.0
aF1.0
aI28
aI9
aF1.0
aI28
aI28
aI-2
aI15
aI1
aI13
aI5
aI28
aI9
aI12
aa(lp40
I26
aI1
aF1.0
aF1.0
aI28
aI9
aF1.0
aI28
aI28
aI-2
aI15
aI1
aI14
aI4
aI28
aI9
aI12
aa(lp41
I26
aI1
aF1.0
aF1.0
aI28
aI9
aF1.0
aI28
aI28
aI-2
aI15
aI1
aI15
aI3
aI28
aI9
aI12
aa(lp42
I26
aI1
aF1.0
aF1.0
aI28
aI9
aF1.0
aI28
aI28
aI-2
aI15
aI1
aI15
aI2
aI28
aI9
aI12
aa(lp43
I26
aI1
aF1.0
aF1.0
aI28
aI8
aF1.0
aI28
aI28
aI-2
aI16
aI1
aI16
aI2
aI28
aI10
aI13
aa(lp44
I26
aI1
aF1.0
aF1.0
aI28
aI7
aF1.0
aI28
aI28
aI-2
aI17
aI1
aI18
aI2
aI28
aI11
aI14
aa(lp45
I26
aI1
aF1.0
aF1.0
aI28
aI6
aF1.0
aI28
aI28
aI-2
aI18
aI1
aI20
aI2
aI28
aI12
aI15
aa(lp46
I26
aI1
aF1.0
aF1.0
aI28
aI5
aF1.0
aI28
aI28
aI-2
aI17
aI1
aI20
aI2
aI28
aI11
aI14
aa(lp47
I25
aI1
aF1.0
aF1.0
aI28
aI4
aF1.0
aI28
aI28
aI-3
aI18
aI1
aI22
aI2
aI28
aI12
aI15
aa(lp48
I25
aI1
aF1.0
aF1.0
aI28
aI3
aF1.0
aI28
aI28
aI-3
aI19
aI1
aI24
aI1
aI28
aI13
aI16
aa(lp49
I25
aI1
aF1.0
aF1.0
aI28
aI4
aF1.0
aI28
aI28
aI-3
aI20
aI1
aI26
aI1
aI28
aI14
aI17
aa(lp50
I25
aI1
aF1.0
aF1.0
aI28
aI5
aF1.0
aI28
aI28
aI-3
aI21
aI1
aI28
aI1
aI28
aI15
aI18
aa(lp51
I25
aI1
aF1.0
aF1.0
aI28
aI6
aF1.0
aI28
aI28
aI-3
aI22
aI1
aI30
aI1
aI28
aI16
aI19
aa(lp52
I25
aI1
aF1.0
aF1.0
aI28
aI6
aF1.0
aI28
aI28
aI-3
aI22
aI1
aI31
aI2
aI28
aI16
aI19
aa(lp53
I24
aI1
aF1.0
aF1.0
aI28
aI5
aF1.0
aI28
aI28
aI-4
aI21
aI1
aI31
aI2
aI28
aI15
aI18
aa(lp54
I24
aI1
aF1.0
aF1.0
aI28
aI4
aF1.0
aI28
aI28
aI-4
aI20
aI1
aI29
aI2
aI28
aI14
aI17
aa(lp55
I24
aI1
aF1.0
aF1.0
aI28
aI3
aF1.0
aI28
aI28
aI-4
aI19
aI1
aI27
aI2
aI28
aI13
aI16
aa(lp56
I24
aI1
aF1.0
aF1.0
aI28
aI4
aF1.0
aI28
aI28
aI-4
aI18
aI1
aI27
aI2
aI28
aI12
aI15
aa(lp57
I24
aI1
aF1.0
aF1.0
aI28
aI3
aF1.0
aI28
aI28
aI-4
aI19
aI1
aI29
aI1
aI28
aI13
aI16
aa(lp58
I24
aI0
aF1.0
aF1.0
aI27
aI4
aF1.0
aI27
aI27
aI-3
aI20
aI1
aI31
aI0
aI27
aI14
aI17
aa(lp59
I24
aI0
aF1.0
aF1.0
aI27
aI5
aF1.0
aI27
aI27
aI-3
aI21
aI1
aI31
aI0
aI27
aI15
aI18
aa(lp60
I24
aI0
aF1.0
aF1.0
aI27
aI6
aF1.0
aI27
aI27
aI-3
aI22
aI1
aI33
aI0
aI27
aI16
aI19
aa(lp61
I24
aI0
aF1.0
aF1.0
aI27
aI6
aF1.0
aI27
aI27
aI-3
aI22
aI1
aI34
aI0
aI27
aI16
aI19
aa(lp62
I24
aI0
aF1.0
aF1.0
aI27
aI5
aF1.0
aI27
aI27
aI-3
aI21
aI1
aI34
aI0
aI27
aI15
aI18
aa(lp63
I24
aI0
aF1.0
aF1.0
aI27
aI4
aF1.0
aI27
aI27
aI-3
aI20
aI1
aI33
aI0
aI27
aI14
aI17
aa(lp64
I24
aI0
aF1.0
aF1.0
aI27
aI3
aF1.0
aI27
aI27
aI-3
aI19
aI1
aI33
aI0
aI27
aI13
aI16
aa(lp65
I24
aI0
aF1.0
aF1.0
aI27
aI4
aF1.0
aI27
aI27
aI-3
aI18
aI1
aI33
aI0
aI27
aI12
aI15
aa(lp66
I24
aI0
aF1.0
aF1.0
aI26
aI5
aF1.0
aI26
aI26
aI-2
aI17
aI1
aI33
aI0
aI26
aI11
aI13
aa(lp67
I24
aI0
aF1.0
aF1.0
aI26
aI6
aF1.0
aI26
aI26
aI-2
aI16
aI1
aI33
aI0
aI26
aI10
aI12
aa(lp68
I24
aI0
aF1.0
aF1.0
aI26
aI7
aF1.0
aI26
aI26
aI-2
aI15
aI1
aI33
aI0
aI26
aI9
aI11
aa(lp69
I24
aI0
aF1.0
aF1.0
aI26
aI8
aF1.0
aI26
aI26
aI-2
aI14
aI1
aI33
aI0
aI26
aI8
aI10
aa(lp70
I24
aI0
aF1.0
aF1.0
aI26
aI7
aF1.0
aI26
aI26
aI-2
aI13
aI1
aI33
aI0
aI26
aI7
aI9
aa(lp71
I24
aI0
aF1.0
aF1.0
aI25
aI8
aF1.0
aI25
aI25
aI-1
aI12
aI1
aI33
aI0
aI25
aI6
aI8
aa(lp72
I24
aI0
aF1.0
aF1.0
aI24
aI9
aF1.0
aI24
aI24
aI0
aI11
aI1
aI33
aI0
aI24
aI5
aI7
aa(lp73
I24
aI0
aF1.0
aF1.0
aI24
aI10
aF1.0
aI24
aI24
aI0
aI10
aI0
aI31
aI0
aI24
aI4
aI6
aa(lp74
I24
aI0
aF1.0
aF1.0
aI24
aI11
aF1.0
aI24
aI24
aI0
aI9
aI0
aI31
aI0
aI24
aI3
aI5
aa(lp75
I24
aI0
aF1.0
aF1.0
aI24
aI10
aF1.0
aI24
aI24
aI0
aI10
aI0
aI29
aI0
aI24
aI4
aI6
aa(lp76
I24
aI0
aF1.0
aF1.0
aI24
aI9
aF1.0
aI24
aI24
aI0
aI11
aI1
aI29
aI0
aI24
aI5
aI7
aa(lp77
I24
aI0
aF1.0
aF1.0
aI24
aI10
aF1.0
aI24
aI24
aI0
aI12
aI1
aI29
aI0
aI24
aI4
aI8
aa(lp78
I24
aI0
aF1.0
aF1.0
aI24
aI11
aF1.0
aI24
aI24
aI0
aI13
aI1
aI29
aI0
aI24
aI3
aI9
aa(lp79
I24
aI0
aF1.0
aF1.0
aI24
aI12
aF1.0
aI24
aI24
aI0
aI14
aI1
aI31
aI0
aI24
aI4
aI10
aa(lp80
I24
aI0
aF1.0
aF1.0
aI23
aI13
aF1.0
aI23
aI23
aI1
aI15
aI1
aI33
aI0
aI23
aI5
aI10
aa(lp81
I24
aI0
aF1.0
aF1.0
aI22
aI14
aF1.0
aI22
aI22
aI2
aI16
aI1
aI35
aI0
aI22
aI4
aI10
aa(lp82
I24
aI0
aF1.0
aF1.0
aI22
aI13
aF1.0
aI22
aI22
aI2
aI15
aI1
aI33
aI0
aI22
aI5
aI9
aa(lp83
I24
aI1
aF1.0
aF1.0
aI22
aI12
aF1.0
aI22
aI22
aI2
aI14
aI1
aI31
aI1
aI22
aI4
aI8
aa(lp84
I24
aI0
aF1.0
aF1.0
aI22
aI11
aF1.0
aI22
aI22
aI2
aI13
aI1
aI29
aI0
aI22
aI3
aI7
aa(lp85
I24
aI0
aF1.0
aF1.0
aI22
aI10
aF1.0
aI22
aI22
aI2
aI12
aI1
aI27
aI0
aI22
aI4
aI6
aa(lp86
I24
aI0
aF1.0
aF1.0
aI22
aI9
aF1.0
aI22
aI22
aI2
aI11
aI1
aI25
aI0
aI22
aI5
aI7
aa(lp87
I24
aI0
aF1.0
aF1.0
aI22
aI10
aF1.0
aI22
aI22
aI2
aI10
aI0
aI23
aI0
aI22
aI4
aI6
aa(lp88
I24
aI0
aF1.0
aF1.0
aI22
aI9
aF1.0
aI22
aI22
aI2
aI11
aI0
aI21
aI0
aI22
aI5
aI7
aa(lp89
I24
aI0
aF1.0
aF1.0
aI22
aI8
aF1.0
aI22
aI22
aI2
aI12
aI1
aI21
aI0
aI22
aI6
aI8
aa(lp90
I24
aI0
aF1.0
aF1.0
aI22
aI7
aF1.0
aI22
aI22
aI2
aI13
aI1
aI21
aI0
aI22
aI7
aI9
aa(lp91
I24
aI0
aF1.0
aF1.0
aI22
aI6
aF1.0
aI22
aI22
aI2
aI14
aI1
aI21
aI0
aI22
aI8
aI10
aa(lp92
I24
aI0
aF1.0
aF1.0
aI22
aI5
aF1.0
aI22
aI22
aI2
aI15
aI1
aI21
aI0
aI22
aI9
aI11
aa(lp93
I24
aI0
aF1.0
aF1.0
aI22
aI4
aF1.0
aI22
aI22
aI2
aI16
aI1
aI21
aI0
aI22
aI10
aI12
aa(lp94
I24
aI0
aF1.0
aF1.0
aI22
aI3
aF1.0
aI22
aI22
aI2
aI17
aI1
aI21
aI0
aI22
aI11
aI13
aa(lp95
I24
aI0
aF1.0
aF1.0
aI22
aI4
aF1.0
aI22
aI22
aI2
aI16
aI1
aI19
aI0
aI22
aI10
aI12
aa(lp96
I24
aI0
aF1.0
aF1.0
aI22
aI5
aF1.0
aI22
aI22
aI2
aI15
aI1
aI17
aI0
aI22
aI9
aI11
aa(lp97
I24
aI0
aF1.0
aF1.0
aI22
aI6
aF1.0
aI22
aI22
aI2
aI14
aI1
aI15
aI0
aI22
aI8
aI10
aa(lp98
I24
aI0
aF1.0
aF1.0
aI22
aI7
aF1.0
aI22
aI22
aI2
aI13
aI1
aI13
aI0
aI22
aI7
aI9
aa(lp99
I24
aI0
aF1.0
aF1.0
aI22
aI8
aF1.0
aI22
aI22
aI2
aI12
aI1
aI11
aI0
aI22
aI6
aI8
aa(lp100
I24
aI0
aF1.0
aF1.0
aI22
aI9
aF1.0
aI22
aI22
aI2
aI11
aI1
aI11
aI0
aI22
aI5
aI7
aa(lp101
I24
aI0
aF1.0
aF1.0
aI22
aI10
aF1.0
aI22
aI22
aI2
aI12
aI1
aI11
aI0
aI22
aI4
aI6
aa(lp102
I24
aI0
aF1.0
aF1.0
aI22
aI11
aF1.0
aI22
aI22
aI2
aI13
aI1
aI11
aI0
aI22
aI3
aI7
aa(lp103
I24
aI0
aF1.0
aF1.0
aI22
aI12
aF1.0
aI22
aI22
aI2
aI14
aI1
aI13
aI0
aI22
aI4
aI8
aa(lp104
I24
aI0
aF1.0
aF1.0
aI22
aI13
aF1.0
aI22
aI22
aI2
aI15
aI1
aI15
aI0
aI22
aI5
aI9
aa(lp105
I24
aI1
aF1.0
aF1.0
aI22
aI14
aF1.0
aI22
aI22
aI2
aI16
aI1
aI15
aI1
aI22
aI4
aI10
aa(lp106
I24
aI0
aF1.0
aF1.0
aI22
aI15
aF1.0
aI22
aI22
aI2
aI17
aI1
aI17
aI0
aI22
aI3
aI11
aa(lp107
I24
aI0
aF1.0
aF1.0
aI22
aI16
aF1.0
aI22
aI22
aI2
aI18
aI1
aI19
aI0
aI22
aI4
aI12
aa(lp108
I24
aI0
aF1.0
aF1.0
aI22
aI16
aF1.0
aI22
aI22
aI2
aI18
aI1
aI20
aI0
aI22
aI4
aI12
aa(lp109
I24
aI0
aF1.0
aF1.0
aI22
aI16
aF1.0
aI22
aI22
aI2
aI18
aI1
aI21
aI0
aI22
aI4
aI12
aa(lp110
I24
aI0
aF1.0
aF1.0
aI21
aI16
aF1.0
aI21
aI21
aI3
aI18
aI1
aI22
aI0
aI21
aI4
aI12
aa(lp111
I24
aI0
aF1.0
aF1.0
aI20
aI16
aF1.0
aI20
aI20
aI4
aI18
aI1
aI23
aI0
aI20
aI4
aI11
aa(lp112
I24
aI0
aF1.0
aF1.0
aI20
aI16
aF1.0
aI20
aI20
aI4
aI18
aI1
aI23
aI0
aI20
aI4
aI11
aa(lp113
I24
aI0
aF1.0
aF1.0
aI20
aI16
aF1.0
aI20
aI20
aI4
aI18
aI1
aI23
aI0
aI20
aI4
aI11
aa(lp114
I24
aI0
aF1.0
aF1.0
aI20
aI15
aF1.0
aI20
aI20
aI4
aI17
aI1
aI21
aI0
aI20
aI3
aI10
aa(lp115
I24
aI0
aF1.0
aF1.0
aI20
aI14
aF1.0
aI20
aI20
aI4
aI16
aI1
aI19
aI0
aI20
aI4
aI11
aa(lp116
I24
aI0
aF1.0
aF1.0
aI20
aI13
aF1.0
aI20
aI20
aI4
aI15
aI1
aI17
aI0
aI20
aI5
aI10
aa(lp117
I24
aI0
aF1.0
aF1.0
aI20
aI12
aF1.0
aI20
aI20
aI4
aI14
aI1
aI15
aI0
aI20
aI4
aI9
aa(lp118
I24
aI0
aF1.0
aF1.0
aI20
aI11
aF1.0
aI20
aI20
aI4
aI13
aI1
aI13
aI0
aI20
aI3
aI8
aa(lp119
I24
aI0
aF1.0
aF1.0
aI20
aI10
aF1.0
aI20
aI20
aI4
aI12
aI1
aI11
aI0
aI20
aI4
aI7
aa(lp120
I24
aI0
aF1.0
aF1.0
aI20
aI9
aF1.0
aI20
aI20
aI4
aI11
aI1
aI9
aI0
aI20
aI5
aI8
aa(lp121
I24
aI0
aF1.0
aF1.0
aI20
aI10
aF1.0
aI20
aI20
aI4
aI12
aI1
aI9
aI0
aI20
aI4
aI7
aa(lp122
I24
aI0
aF1.0
aF1.0
aI20
aI11
aF1.0
aI20
aI20
aI4
aI13
aI1
aI9
aI0
aI20
aI3
aI8
aa(lp123
I24
aI0
aF1.0
aF1.0
aI20
aI12
aF1.0
aI20
aI20
aI4
aI14
aI1
aI11
aI0
aI20
aI4
aI9
aa(lp124
I24
aI0
aF1.0
aF1.0
aI20
aI11
aF1.0
aI20
aI20
aI4
aI13
aI1
aI11
aI0
aI20
aI3
aI8
aa(lp125
I24
aI0
aF1.0
aF1.0
aI20
aI12
aF1.0
aI20
aI20
aI4
aI14
aI1
aI13
aI0
aI20
aI4
aI9
aa(lp126
I24
aI0
aF1.0
aF1.0
aI19
aI13
aF1.0
aI19
aI19
aI5
aI15
aI1
aI15
aI0
aI19
aI5
aI10
aa(lp127
I24
aI0
aF1.0
aF1.0
aI19
aI14
aF1.0
aI19
aI19
aI5
aI16
aI1
aI15
aI0
aI19
aI4
aI11
aa(lp128
I24
aI0
aF1.0
aF1.0
aI19
aI15
aF1.0
aI19
aI19
aI5
aI17
aI1
aI15
aI0
aI19
aI3
aI10
aa(lp129
I24
aI0
aF1.0
aF1.0
aI19
aI14
aF1.0
aI19
aI19
aI5
aI16
aI1
aI13
aI0
aI19
aI4
aI11
aa(lp130
I24
aI1
aF1.0
aF1.0
aI19
aI13
aF1.0
aI19
aI19
aI5
aI15
aI1
aI13
aI1
aI19
aI5
aI10
aa(lp131
I24
aI0
aF1.0
aF1.0
aI19
aI12
aF1.0
aI19
aI19
aI5
aI14
aI1
aI13
aI0
aI19
aI4
aI9
aa(lp132
I24
aI0
aF1.0
aF1.0
aI19
aI11
aF1.0
aI19
aI19
aI5
aI0
aI1
aI13
aI0
aI19
aI3
aI8
aa(lp133
I24
aI0
aF1.0
aF1.0
aI19
aI10
aF1.0
aI19
aI19
aI5
aI0
aI1
aI11
aI0
aI19
aI4
aI7
aa(lp134
I24
aI0
aF1.0
aF1.0
aI19
aI9
aF1.0
aI19
aI19
aI5
aI0
aI1
aI13
aI0
aI19
aI5
aI8
aa(lp135
I24
aI0
aF1.0
aF1.0
aI19
aI10
aF1.0
aI19
aI19
aI5
aI0
aI0
aI13
aI0
aI19
aI4
aI7
aa(lp136
I24
aI0
aF1.0
aF1.0
aI18
aI11
aF1.0
aI18
aI18
aI6
aI0
aI0
aI13
aI0
aI18
aI3
aI6
aa(lp137
I24
aI0
aF1.0
aF1.0
aI18
aI12
aF1.0
aI18
aI18
aI6
aI0
aI0
aI11
aI0
aI18
aI2
aI5
aa(lp138
I24
aI0
aF1.0
aF1.0
aI18
aI13
aF1.0
aI18
aI18
aI6
aI0
aI0
aI11
aI0
aI18
aI2
aI4
aa(lp139
I24
aI0
aF1.0
aF1.0
aI18
aI14
aF1.0
aI18
aI18
aI6
aI0
aI0
aI11
aI0
aI18
aI1
aI3
aa(lp140
I24
aI0
aF1.0
aF1.0
aI16
aI15
aF1.0
aI16
aI16
aI8
aI0
aI0
aI11
aI0
aI16
aI1
aI2
aa(lp141
I24
aI0
aF1.0
aF1.0
aI16
aI14
aF1.0
aI16
aI16
aI8
aI0
aI0
aI11
aI0
aI16
aI2
aI3
aa(lp142
I24
aI0
aF1.0
aF1.0
aI16
aI13
aF1.0
aI16
aI16
aI8
aI0
aI0
aI13
aI0
aI16
aI1
aI4
aa(lp143
I24
aI0
aF1.0
aF1.0
aI14
aI14
aF1.0
aI14
aI14
aI10
aI0
aI0
aI15
aI0
aI14
aI1
aI6
aa(lp144
I24
aI0
aF1.0
aF1.0
aI12
aI15
aF1.0
aI12
aI12
aI12
aI0
aI0
aI17
aI0
aI12
aI2
aI5
aa(lp145
I24
aI0
aF1.0
aF1.0
aI12
aI14
aF1.0
aI12
aI12
aI12
aI0
aI0
aI15
aI0
aI12
aI3
aI6
aa(lp146
I24
aI0
aF1.0
aF1.0
aI12
aI13
aF1.0
aI12
aI12
aI12
aI0
aI0
aI15
aI0
aI12
aI4
aI7
aa(lp147
I24
aI0
aF1.0
aF1.0
aI12
aI12
aF1.0
aI12
aI12
aI12
aI0
aI0
aI15
aI0
aI12
aI5
aI8
aa(lp148
I24
aI0
aF1.0
aF1.0
aI12
aI11
aF1.0
aI12
aI12
aI12
aI0
aI1
aI15
aI0
aI12
aI6
aI9
aa(lp149
I24
aI0
aF1.0
aF1.0
aI12
aI12
aF1.0
aI12
aI12
aI12
aI0
aI1
aI15
aI0
aI12
aI6
aI10
aa(lp150
I24
aI0
aF1.0
aF1.0
aI12
aI13
aF1.0
aI12
aI12
aI12
aI0
aI1
aI15
aI0
aI12
aI5
aI11
aa(lp151
I24
aI0
aF1.0
aF1.0
aI12
aI14
aF1.0
aI12
aI12
aI12
aI0
aI1
aI15
aI0
aI12
aI4
aI10
aa(lp152
I24
aI1
aF1.0
aF1.0
aI12
aI13
aF1.0
aI12
aI12
aI12
aI0
aI1
aI13
aI2
aI12
aI5
aI11
aa(lp153
I24
aI1
aF1.0
aF1.0
aI11
aI14
aF1.0
aI11
aI11
aI13
aI0
aI1
aI13
aI1
aI11
aI4
aI9
aa(lp154
I24
aI0
aF1.0
aF1.0
aI11
aI15
aF1.0
aI11
aI11
aI13
aI0
aI1
aI13
aI0
aI11
aI3
aI8
aa(lp155
I24
aI0
aF1.0
aF1.0
aI11
aI16
aF1.0
aI11
aI11
aI13
aI0
aI1
aI13
aI0
aI11
aI4
aI9
aa(lp156
I24
aI0
aF1.0
aF1.0
aI11
aI16
aF1.0
aI11
aI11
aI13
aI0
aI1
aI14
aI0
aI11
aI4
aI9
aa(lp157
I24
aI0
aF1.0
aF1.0
aI11
aI16
aF1.0
aI11
aI11
aI13
aI0
aI1
aI15
aI0
aI11
aI4
aI9
aa(lp158
I24
aI0
aF1.0
aF1.0
aI11
aI16
aF1.0
aI11
aI11
aI13
aI0
aI1
aI16
aI0
aI11
aI4
aI9
aa(lp159
I24
aI0
aF1.0
aF1.0
aI11
aI16
aF1.0
aI11
aI11
aI13
aI0
aI1
aI16
aI0
aI11
aI4
aI9
aa(lp160
I24
aI0
aF1.0
aF1.0
aI11
aI15
aF1.0
aI11
aI11
aI13
aI0
aI1
aI16
aI0
aI11
aI3
aI8
aa(lp161
I24
aI0
aF1.0
aF1.0
aI11
aI14
aF1.0
aI11
aI11
aI13
aI0
aI1
aI17
aI0
aI11
aI4
aI9
aa(lp162
I24
aI0
aF1.0
aF1.0
aI11
aI15
aF1.0
aI11
aI11
aI13
aI0
aI0
aI17
aI0
aI11
aI3
aI8
aa(lp163
I24
aI0
aF1.0
aF1.0
aI11
aI15
aF1.0
aI11
aI11
aI13
aI0
aI0
aI18
aI0
aI11
aI3
aI8
aa(lp164
I24
aI0
aF1.0
aF1.0
aI10
aI15
aF1.0
aI10
aI10
aI14
aI0
aI0
aI19
aI0
aI10
aI3
aI7
aa(lp165
I24
aI0
aF1.0
aF1.0
aI10
aI14
aF1.0
aI10
aI10
aI14
aI0
aI1
aI20
aI0
aI10
aI4
aI8
aa(lp166
I24
aI0
aF1.0
aF1.0
aI10
aI13
aF1.0
aI10
aI10
aI14
aI0
aI1
aI20
aI0
aI10
aI5
aI9
aa(lp167
I24
aI0
aF1.0
aF1.0
aI10
aI12
aF1.0
aI10
aI10
aI14
aI0
aI1
aI21
aI0
aI10
aI6
aI10
aa(lp168
I24
aI0
aF1.0
aF1.0
aI10
aI11
aF1.0
aI10
aI10
aI14
aI0
aI1
aI22
aI0
aI10
aI7
aI11
aa(lp169
I24
aI0
aF1.0
aF1.0
aI10
aI12
aF1.0
aI10
aI10
aI14
aI0
aI1
aI20
aI0
aI10
aI6
aI10
aa(lp170
I24
aI0
aF1.0
aF1.0
aI10
aI13
aF1.0
aI10
aI10
aI14
aI0
aI1
aI18
aI0
aI10
aI5
aI9
aa(lp171
I24
aI0
aF1.0
aF1.0
aI10
aI14
aF1.0
aI10
aI10
aI14
aI0
aI1
aI16
aI0
aI10
aI4
aI8
aa(lp172
I24
aI0
aF1.0
aF1.0
aI10
aI15
aF1.0
aI10
aI10
aI14
aI0
aI0
aI14
aI0
aI10
aI3
aI7
aa(lp173
I24
aI0
aF1.0
aF1.0
aI10
aI14
aF1.0
aI10
aI10
aI14
aI0
aI1
aI14
aI0
aI10
aI4
aI8
aa(lp174
I24
aI0
aF1.0
aF1.0
aI9
aI13
aF1.0
aI9
aI9
aI15
aI0
aI1
aI14
aI0
aI9
aI5
aI9
aa(lp175
I24
aI0
aF1.0
aF1.0
aI9
aI12
aF1.0
aI9
aI9
aI15
aI0
aI1
aI14
aI0
aI9
aI6
aI10
aa(lp176
I24
aI0
aF1.0
aF1.0
aI9
aI11
aF1.0
aI9
aI9
aI15
aI0
aI1
aI16
aI0
aI9
aI7
aI11
aa(lp177
I24
aI0
aF1.0
aF1.0
aI9
aI11
aF1.0
aI9
aI9
aI15
aI0
aI1
aI17
aI0
aI9
aI7
aI11
aa(lp178
I24
aI0
aF1.0
aF1.0
aI9
aI11
aF1.0
aI9
aI9
aI15
aI0
aI1
aI16
aI0
aI9
aI7
aI11
aa(lp179
I24
aI0
aF1.0
aF1.0
aI9
aI10
aF1.0
aI9
aI9
aI15
aI0
aI1
aI18
aI0
aI9
aI8
aI12
aa(lp180
I24
aI0
aF1.0
aF1.0
aI9
aI10
aF1.0
aI9
aI9
aI15
aI0
aI1
aI17
aI0
aI9
aI8
aI12
aa(lp181
I24
aI0
aF1.0
aF1.0
aI9
aI9
aF1.0
aI9
aI9
aI15
aI0
aI1
aI15
aI0
aI9
aI9
aI13
aa(lp182
I24
aI0
aF1.0
aF1.0
aI9
aI8
aF1.0
aI9
aI9
aI15
aI0
aI1
aI13
aI0
aI9
aI10
aI14
aa(lp183
I24
aI1
aF1.0
aF1.0
aI8
aI7
aF1.0
aI8
aI8
aI16
aI0
aI1
aI13
aI12
aI8
aI11
aI15
aa(lp184
I24
aI1
aF1.0
aF1.0
aI8
aI8
aF1.0
aI8
aI8
aI16
aI0
aI1
aI13
aI13
aI8
aI12
aI14
aa(lp185
I24
aI1
aF1.0
aF1.0
aI8
aI7
aF1.0
aI8
aI8
aI16
aI0
aI1
aI13
aI14
aI8
aI12
aI13
aa(lp186
I23
aI1
aF1.0
aF1.0
aI8
aI7
aF1.0
aI8
aI8
aI15
aI0
aI1
aI14
aI5
aI8
aI12
aI13
aa(lp187
I22
aI1
aF1.0
aF1.0
aI8
aI8
aF1.0
aI8
aI8
aI14
aI0
aI1
aI12
aI5
aI8
aI11
aI12
aa(lp188
I22
aI1
aF1.0
aF1.0
aI7
aI7
aF1.0
aI7
aI7
aI15
aI0
aI1
aI10
aI5
aI7
aI11
aI12
aa(lp189
I21
aI1
aF1.0
aF1.0
aI7
aI6
aF1.0
aI7
aI7
aI14
aI0
aI1
aI12
aI5
aI7
aI12
aI13
aa(lp190
I21
aI1
aF1.0
aF1.0
aI7
aI5
aF1.0
aI7
aI7
aI14
aI0
aI1
aI14
aI5
aI7
aI13
aI14
aa(lp191
I21
aI1
aF1.0
aF1.0
aI6
aI6
aF1.0
aI6
aI6
aI15
aI0
aI1
aI14
aI5
aI6
aI17
aI15
aa(lp192
I20
aI1
aF1.0
aF1.0
aI6
aI7
aF1.0
aI6
aI6
aI14
aI0
aI1
aI14
aI5
aI6
aI18
aI16
aa(lp193
I20
aI1
aF1.0
aF1.0
aI6
aI8
aF1.0
aI6
aI6
aI14
aI0
aI1
aI16
aI3
aI6
aI19
aI17
aa(lp194
I20
aI1
aF1.0
aF1.0
aI6
aI8
aF1.0
aI6
aI6
aI14
aI0
aI1
aI17
aI4
aI6
aI19
aI17
aa(lp195
I19
aI1
aF1.0
aF1.0
aI6
aI9
aF1.0
aI6
aI6
aI13
aI0
aI1
aI19
aI4
aI6
aI20
aI18
aa(lp196
I18
aI1
aF1.0
aF1.0
aI5
aI8
aF1.0
aI5
aI5
aI13
aI0
aI1
aI21
aI6
aI5
aI21
aI20
aa(lp197
I17
aI1
aF1.0
aF1.0
aI4
aI7
aF1.0
aI4
aI4
aI13
aI0
aI1
aI23
aI8
aI4
aI22
aI21
aa(lp198
I17
aI1
aF1.0
aF1.0
aI3
aI8
aF1.0
aI3
aI3
aI14
aI0
aI1
aI23
aI8
aI3
aI21
aI21
aa(lp199
I17
aI1
aF1.0
aF1.0
aI3
aI9
aF1.0
aI3
aI3
aI14
aI0
aI1
aI23
aI6
aI3
aI20
aI20
aa(lp200
I17
aI1
aF1.0
aF1.0
aI3
aI10
aF1.0
aI3
aI3
aI14
aI0
aI1
aI25
aI7
aI3
aI21
aI21
aa(lp201
I16
aI1
aF1.0
aF1.0
aI3
aI10
aF1.0
aI3
aI3
aI13
aI0
aI1
aI27
aI8
aI3
aI20
aI22
aa.