(lp0
(lp1
I30
aI0
aF1.0
aF1.0
aI30
aI17
aF1.0
aI30
aI30
aI0
aI39
aI2
aI1
aI0
aI30
aI26
aI46
aa(lp2
I30
aI0
aF1.0
aF1.0
aI30
aI16
aF1.0
aI30
aI30
aI0
aI38
aI2
aI1
aI0
aI30
aI25
aI45
aa(lp3
I30
aI0
aF1.0
aF1.0
aI30
aI15
aF1.0
aI30
aI30
aI0
aI37
aI2
aI1
aI0
aI30
aI24
aI44
aa(lp4
I30
aI0
aF1.0
aF1.0
aI30
aI14
aF1.0
aI30
aI30
aI0
aI36
aI2
aI3
aI0
aI30
aI23
aI43
aa(lp5
I30
aI0
aF1.0
aF1.0
aI30
aI13
aF1.0
aI30
aI30
aI0
aI35
aI2
aI3
aI0
aI30
aI22
aI42
aa(lp6
I30
aI0
aF1.0
aF1.0
aI30
aI12
aF1.0
aI30
aI30
aI0
aI34
aI2
aI3
aI0
aI30
aI21
aI41
aa(lp7
I30
aI0
aF1.0
aF1.0
aI30
aI11
aF1.0
aI30
aI30
aI0
aI33
aI2
aI5
aI0
aI30
aI20
aI40
aa(lp8
I30
aI0
aF1.0
aF1.0
aI30
aI10
aF1.0
aI30
aI30
aI0
aI32
aI2
aI7
aI0
aI30
aI19
aI39
aa(lp9
I30
aI0
aF1.0
aF1.0
aI30
aI9
aF1.0
aI30
aI30
aI0
aI31
aI2
aI8
aI0
aI30
aI18
aI38
aa(lp10
I30
aI0
aF1.0
aF1.0
aI30
aI8
aF1.0
aI30
aI30
aI0
aI30
aI2
aI9
aI0
aI30
aI17
aI37
aa(lp11
I30
aI0
aF1.0
aF1.0
aI30
aI7
aF1.0
aI30
aI30
aI0
aI29
aI2
aI9
aI0
aI30
aI16
aI36
aa(lp12
I30
aI0
aF1.0
aF1.0
aI30
aI6
aF1.0
aI30
aI30
aI0
aI28
aI2
aI9
aI0
aI30
aI15
aI35
aa(lp13
I30
aI0
aF1.0
aF1.0
aI30
aI7
aF1.0
aI30
aI30
aI0
aI27
aI2
aI9
aI0
aI30
aI14
aI34
aa(lp14
I30
aI0
aF1.0
aF1.0
aI30
aI7
aF1.0
aI30
aI30
aI0
aI27
aI2
aI8
aI0
aI30
aI14
aI34
aa(lp15
I30
aI0
aF1.0
aF1.0
aI30
aI8
aF1.0
aI30
aI30
aI0
aI26
aI2
aI8
aI0
aI30
aI13
aI33
aa(lp16
I30
aI0
aF1.0
aF1.0
aI30
aI9
aF1.0
aI30
aI30
aI0
aI25
aI2
aI8
aI0
aI30
aI12
aI32
aa(lp17
I30
aI0
aF1.0
aF1.0
aI30
aI10
aF1.0
aI30
aI30
aI0
aI24
aI2
aI8
aI0
aI30
aI11
aI31
aa(lp18
I30
aI0
aF1.0
aF1.0
aI30
aI11
aF1.0
aI30
aI30
aI0
aI23
aI2
aI8
aI0
aI30
aI10
aI30
aa(lp19
I30
aI0
aF1.0
aF1.0
aI30
aI12
aF1.0
aI30
aI30
aI0
aI22
aI2
aI10
aI0
aI30
aI9
aI29
aa(lp20
I30
aI0
aF1.0
aF1.0
aI30
aI13
aF1.0
aI30
aI30
aI0
aI21
aI2
aI12
aI0
aI30
aI8
aI28
aa(lp21
I30
aI0
aF1.0
aF1.0
aI30
aI14
aF1.0
aI30
aI30
aI0
aI20
aI2
aI14
aI0
aI30
aI9
aI27
aa(lp22
I30
aI1
aF1.0
aF1.0
aI30
aI15
aF1.0
aI30
aI30
aI0
aI19
aI2
aI16
aI26
aI30
aI10
aI26
aa(lp23
I30
aI1
aF1.0
aF1.0
aI30
aI16
aF1.0
aI30
aI30
aI0
aI18
aI2
aI18
aI11
aI30
aI11
aI25
aa(lp24
I30
aI1
aF1.0
aF1.0
aI30
aI17
aF1.0
aI30
aI30
aI0
aI17
aI2
aI20
aI7
aI30
aI12
aI24
aa(lp25
I29
aI1
aF1.0
aF1.0
aI30
aI18
aF1.0
aI30
aI30
aI-1
aI18
aI2
aI19
aI6
aI30
aI13
aI25
aa(lp26
I28
aI1
aF1.0
aF1.0
aI30
aI18
aF1.0
aI30
aI30
aI-2
aI17
aI2
aI17
aI7
aI30
aI12
aI24
aa(lp27
I27
aI1
aF1.0
aF1.0
aI30
aI18
aF1.0
aI30
aI30
aI-3
aI16
aI2
aI15
aI3
aI30
aI11
aI23
aa(lp28
I27
aI1
aF1.0
aF1.0
aI30
aI18
aF1.0
aI30
aI30
aI-3
aI16
aI2
aI14
aI2
aI30
aI11
aI23
aa(lp29
I26
aI1
aF1.0
aF1.0
aI30
aI18
aF1.0
aI30
aI30
aI-4
aI16
aI2
aI13
aI1
aI30
aI11
aI23
aa(lp30
I26
aI1
aF1.0
aF1.0
aI30
aI19
aF1.0
aI30
aI30
aI-4
aI15
aI2
aI11
aI1
aI30
aI10
aI22
aa(lp31
I26
aI1
aF1.0
aF1.0
aI30
aI18
aF1.0
aI30
aI30
aI-4
aI14
aI2
aI11
aI1
aI30
aI9
aI21
aa(lp32
I26
aI1
aF1.0
aF1.0
aI30
aI19
aF1.0
aI30
aI30
aI-4
aI13
aI2
aI11
aI3
aI30
aI8
aI20
aa(lp33
I26
aI1
aF1.0
aF1.0
aI30
aI18
aF1.0
aI30
aI30
aI-4
aI14
aI2
aI11
aI3
aI30
aI9
aI21
aa(lp34
I26
aI1
aF1.0
aF1.0
aI30
aI17
aF1.0
aI30
aI30
aI-4
aI15
aI2
aI9
aI3
aI30
aI10
aI22
aa(lp35
I26
aI1
aF1.0
aF1.0
aI30
aI16
aF1.0
aI30
aI30
aI-4
aI16
aI2
aI9
aI3
aI30
aI11
aI23
aa(lp36
I26
aI1
aF1.0
aF1.0
aI30
aI15
aF1.0
aI30
aI30
aI-4
aI17
aI2
aI9
aI3
aI30
aI12
aI24
aa(lp37
I25
aI1
aF1.0
aF1.0
aI30
aI14
aF1.0
aI30
aI30
aI-5
aI18
aI2
aI9
aI3
aI30
aI11
aI25
aa(lp38
I25
aI1
aF1.0
aF1.0
aI30
aI13
aF1.0
aI30
aI30
aI-5
aI19
aI2
aI9
aI3
aI30
aI10
aI26
aa(lp39
I25
aI1
aF1.0
aF1.0
aI30
aI12
aF1.0
aI30
aI30
aI-5
aI20
aI2
aI11
aI3
aI30
aI9
aI27
aa(lp40
I25
aI1
aF1.0
aF1.0
aI30
aI11
aF1.0
aI30
aI30
aI-5
aI21
aI2
aI13
aI3
aI30
aI10
aI28
aa(lp41
I25
aI1
aF1.0
aF1.0
aI30
aI10
aF1.0
aI30
aI30
aI-5
aI22
aI2
aI15
aI3
aI30
aI9
aI29
aa(lp42
I24
aI1
aF1.0
aF1.0
aI30
aI10
aF1.0
aI30
aI30
aI-6
aI23
aI2
aI15
aI3
aI30
aI10
aI30
aa(lp43
I24
aI1
aF1.0
aF1.0
aI30
aI9
aF1.0
aI30
aI30
aI-6
aI24
aI1
aI17
aI1
aI30
aI11
aI31
aa(lp44
I24
aI1
aF1.0
aF1.0
aI30
aI8
aF1.0
aI30
aI30
aI-6
aI25
aI1
aI17
aI1
aI30
aI12
aI32
aa(lp45
I23
aI1
aF1.0
aF1.0
aI30
aI7
aF1.0
aI30
aI30
aI-7
aI26
aI1
aI17
aI3
aI30
aI13
aI33
aa(lp46
I23
aI1
aF1.0
aF1.0
aI30
aI6
aF1.0
aI30
aI30
aI-7
aI27
aI1
aI17
aI3
aI30
aI14
aI34
aa(lp47
I23
aI1
aF1.0
aF1.0
aI30
aI5
aF1.0
aI30
aI30
aI-7
aI28
aI1
aI19
aI1
aI30
aI15
aI35
aa(lp48
I23
aI1
aF1.0
aF1.0
aI30
aI6
aF1.0
aI30
aI30
aI-7
aI29
aI1
aI21
aI1
aI30
aI16
aI36
aa(lp49
I23
aI1
aF1.0
aF1.0
aI30
aI7
aF1.0
aI30
aI30
aI-7
aI30
aI1
aI23
aI1
aI30
aI17
aI37
aa(lp50
I22
aI1
aF1.0
aF1.0
aI30
aI8
aF1.0
aI30
aI30
aI-8
aI31
aI1
aI25
aI1
aI30
aI18
aI38
aa(lp51
I22
aI1
aF1.0
aF1.0
aI30
aI7
aF1.0
aI30
aI30
aI-8
aI30
aI1
aI25
aI2
aI30
aI17
aI37
aa(lp52
I22
aI0
aF1.0
aF1.0
aI30
aI8
aF1.0
aI30
aI30
aI-8
aI31
aI1
aI27
aI0
aI30
aI18
aI38
aa(lp53
I22
aI0
aF1.0
aF1.0
aI30
aI9
aF1.0
aI30
aI30
aI-8
aI32
aI1
aI29
aI0
aI30
aI19
aI39
aa(lp54
I22
aI0
aF1.0
aF1.0
aI30
aI9
aF1.0
aI30
aI30
aI-8
aI32
aI1
aI30
aI0
aI30
aI19
aI39
aa(lp55
I22
aI0
aF1.0
aF1.0
aI30
aI8
aF1.0
aI30
aI30
aI-8
aI31
aI1
aI30
aI0
aI30
aI18
aI38
aa(lp56
I22
aI0
aF1.0
aF1.0
aI29
aI7
aF1.0
aI29
aI29
aI-7
aI30
aI1
aI30
aI0
aI29
aI17
aI37
aa(lp57
I22
aI0
aF1.0
aF1.0
aI29
aI6
aF1.0
aI29
aI29
aI-7
aI29
aI1
aI30
aI0
aI29
aI16
aI36
aa(lp58
I22
aI0
aF1.0
aF1.0
aI29
aI5
aF1.0
aI29
aI29
aI-7
aI28
aI1
aI30
aI0
aI29
aI15
aI35
aa(lp59
I22
aI0
aF1.0
aF1.0
aI28
aI6
aF1.0
aI28
aI28
aI-6
aI27
aI1
aI28
aI0
aI28
aI14
aI34
aa(lp60
I22
aI0
aF1.0
aF1.0
aI28
aI7
aF1.0
aI28
aI28
aI-6
aI26
aI1
aI26
aI0
aI28
aI13
aI33
aa(lp61
I22
aI0
aF1.0
aF1.0
aI28
aI8
aF1.0
aI28
aI28
aI-6
aI25
aI1
aI24
aI0
aI28
aI12
aI32
aa(lp62
I22
aI0
aF1.0
aF1.0
aI28
aI9
aF1.0
aI28
aI28
aI-6
aI24
aI1
aI22
aI0
aI28
aI11
aI31
aa(lp63
I22
aI0
aF1.0
aF1.0
aI28
aI10
aF1.0
aI28
aI28
aI-6
aI23
aI1
aI20
aI0
aI28
aI10
aI30
aa(lp64
I22
aI0
aF1.0
aF1.0
aI28
aI11
aF1.0
aI28
aI28
aI-6
aI22
aI1
aI18
aI0
aI28
aI9
aI29
aa(lp65
I22
aI0
aF1.0
aF1.0
aI27
aI12
aF1.0
aI27
aI27
aI-5
aI21
aI1
aI16
aI0
aI27
aI10
aI28
aa(lp66
I22
aI0
aF1.0
aF1.0
aI27
aI13
aF1.0
aI27
aI27
aI-5
aI20
aI1
aI14
aI0
aI27
aI9
aI27
aa(lp67
I22
aI0
aF1.0
aF1.0
aI27
aI14
aF1.0
aI27
aI27
aI-5
aI19
aI1
aI12
aI0
aI27
aI10
aI26
aa(lp68
I22
aI0
aF1.0
aF1.0
aI27
aI15
aF1.0
aI27
aI27
aI-5
aI18
aI1
aI10
aI0
aI27
aI11
aI25
aa(lp69
I22
aI0
aF1.0
aF1.0
aI27
aI16
aF1.0
aI27
aI27
aI-5
aI17
aI2
aI8
aI0
aI27
aI12
aI24
aa(lp70
I22
aI0
aF1.0
aF1.0
aI27
aI16
aF1.0
aI27
aI27
aI-5
aI17
aI2
aI7
aI0
aI27
aI12
aI24
aa(lp71
I22
aI0
aF1.0
aF1.0
aI27
aI16
aF1.0
aI27
aI27
aI-5
aI17
aI2
aI6
aI0
aI27
aI12
aI24
aa(lp72
I22
aI0
aF1.0
aF1.0
aI27
aI16
aF1.0
aI27
aI27
aI-5
aI17
aI2
aI5
aI0
aI27
aI12
aI24
aa(lp73
I22
aI0
aF1.0
aF1.0
aI27
aI16
aF1.0
aI27
aI27
aI-5
aI17
aI2
aI4
aI0
aI27
aI12
aI24
aa(lp74
I22
aI1
aF1.0
aF1.0
aI27
aI16
aF1.0
aI27
aI27
aI-5
aI17
aI2
aI5
aI10
aI27
aI12
aI24
aa(lp75
I22
aI1
aF1.0
aF1.0
aI27
aI17
aF1.0
aI27
aI27
aI-5
aI18
aI2
aI7
aI9
aI27
aI13
aI25
aa(lp76
I22
aI1
aF1.0
aF1.0
aI27
aI18
aF1.0
aI27
aI27
aI-5
aI17
aI2
aI9
aI8
aI27
aI12
aI24
aa(lp77
I22
aI1
aF1.0
aF1.0
aI27
aI19
aF1.0
aI27
aI27
aI-5
aI16
aI2
aI9
aI7
aI27
aI11
aI23
aa(lp78
I22
aI1
aF1.0
aF1.0
aI27
aI20
aF1.0
aI27
aI27
aI-5
aI15
aI1
aI9
aI20
aI27
aI10
aI22
aa(lp79
I22
aI1
aF1.0
aF1.0
aI27
aI21
aF1.0
aI27
aI27
aI-5
aI16
aI1
aI11
aI5
aI27
aI11
aI23
aa(lp80
I22
aI1
aF1.0
aF1.0
aI27
aI22
aF1.0
aI27
aI27
aI-5
aI17
aI1
aI13
aI4
aI27
aI12
aI24
aa(lp81
I21
aI1
aF1.0
aF1.0
aI26
aI23
aF1.0
aI26
aI26
aI-5
aI16
aI1
aI15
aI3
aI26
aI13
aI23
aa(lp82
I20
aI1
aF1.0
aF1.0
aI26
aI23
aF1.0
aI26
aI26
aI-6
aI15
aI1
aI17
aI4
aI26
aI12
aI22
aa(lp83
I20
aI1
aF1.0
aF1.0
aI25
aI24
aF1.0
aI25
aI25
aI-5
aI16
aI1
aI19
aI3
aI25
aI13
aI23
aa(lp84
I20
aI1
aF1.0
aF1.0
aI25
aI24
aF1.0
aI25
aI25
aI-5
aI16
aI1
aI20
aI2
aI25
aI13
aI23
aa(lp85
I20
aI1
aF1.0
aF1.0
aI25
aI24
aF1.0
aI25
aI25
aI-5
aI16
aI1
aI20
aI1
aI25
aI13
aI23
aa(lp86
I20
aI1
aF1.0
aF1.0
aI25
aI24
aF1.0
aI25
aI25
aI-5
aI16
aI1
aI20
aI1
aI25
aI13
aI23
aa(lp87
I20
aI1
aF1.0
aF1.0
aI25
aI24
aF1.0
aI25
aI25
aI-5
aI16
aI1
aI20
aI1
aI25
aI13
aI23
aa(lp88
I20
aI1
aF1.0
aF1.0
aI24
aI24
aF1.0
aI24
aI24
aI-4
aI16
aI1
aI21
aI1
aI24
aI13
aI22
aa(lp89
I20
aI1
aF1.0
aF1.0
aI23
aI24
aF1.0
aI23
aI23
aI-3
aI16
aI1
aI20
aI1
aI23
aI13
aI23
aa(lp90
I20
aI1
aF1.0
aF1.0
aI23
aI24
aF1.0
aI23
aI23
aI-3
aI16
aI1
aI21
aI1
aI23
aI13
aI23
aa(lp91
I20
aI1
aF1.0
aF1.0
aI23
aI24
aF1.0
aI23
aI23
aI-3
aI16
aI1
aI22
aI1
aI23
aI13
aI23
aa(lp92
I20
aI1
aF1.0
aF1.0
aI23
aI24
aF1.0
aI23
aI23
aI-3
aI16
aI1
aI23
aI1
aI23
aI13
aI23
aa(lp93
I20
aI1
aF1.0
aF1.0
aI23
aI24
aF1.0
aI23
aI23
aI-3
aI16
aI1
aI24
aI1
aI23
aI13
aI23
aa(lp94
I20
aI1
aF1.0
aF1.0
aI22
aI24
aF1.0
aI22
aI22
aI-2
aI16
aI1
aI25
aI1
aI22
aI13
aI23
aa(lp95
I20
aI1
aF1.0
aF1.0
aI22
aI24
aF1.0
aI22
aI22
aI-2
aI16
aI1
aI26
aI1
aI22
aI13
aI23
aa(lp96
I20
aI1
aF1.0
aF1.0
aI22
aI24
aF1.0
aI22
aI22
aI-2
aI16
aI1
aI25
aI1
aI22
aI13
aI23
aa(lp97
I20
aI1
aF1.0
aF1.0
aI22
aI24
aF1.0
aI22
aI22
aI-2
aI16
aI1
aI24
aI1
aI22
aI13
aI23
aa(lp98
I20
aI1
aF1.0
aF1.0
aI21
aI24
aF1.0
aI21
aI21
aI-1
aI16
aI1
aI25
aI1
aI21
aI13
aI23
aa(lp99
I20
aI1
aF1.0
aF1.0
aI21
aI24
aF1.0
aI21
aI21
aI-1
aI16
aI1
aI24
aI1
aI21
aI13
aI23
aa(lp100
I20
aI1
aF1.0
aF1.0
aI21
aI24
aF1.0
aI21
aI21
aI-1
aI16
aI1
aI25
aI1
aI21
aI13
aI23
aa(lp101
I20
aI1
aF1.0
aF1.0
aI21
aI24
aF1.0
aI21
aI21
aI-1
aI16
aI1
aI26
aI1
aI21
aI13
aI23
aa(lp102
I20
aI1
aF1.0
aF1.0
aI21
aI24
aF1.0
aI21
aI21
aI-1
aI16
aI1
aI27
aI1
aI21
aI13
aI23
aa(lp103
I20
aI1
aF1.0
aF1.0
aI21
aI24
aF1.0
aI21
aI21
aI-1
aI16
aI1
aI28
aI1
aI21
aI13
aI23
aa(lp104
I20
aI1
aF1.0
aF1.0
aI21
aI24
aF1.0
aI21
aI21
aI-1
aI16
aI1
aI29
aI1
aI21
aI13
aI23
aa(lp105
I20
aI1
aF1.0
aF1.0
aI21
aI24
aF1.0
aI21
aI21
aI-1
aI16
aI1
aI30
aI1
aI21
aI13
aI23
aa(lp106
I20
aI1
aF1.0
aF1.0
aI21
aI24
aF1.0
aI21
aI21
aI-1
aI16
aI1
aI31
aI1
aI21
aI13
aI23
aa(lp107
I20
aI1
aF1.0
aF1.0
aI20
aI24
aF1.0
aI20
aI20
aI0
aI16
aI1
aI32
aI1
aI20
aI13
aI23
aa(lp108
I20
aI1
aF1.0
aF1.0
aI19
aI24
aF1.0
aI19
aI19
aI1
aI16
aI1
aI31
aI1
aI19
aI13
aI21
aa(lp109
I20
aI1
aF1.0
aF1.0
aI19
aI24
aF1.0
aI19
aI19
aI1
aI16
aI1
aI30
aI1
aI19
aI13
aI21
aa(lp110
I20
aI1
aF1.0
aF1.0
aI19
aI24
aF1.0
aI19
aI19
aI1
aI16
aI1
aI29
aI1
aI19
aI13
aI21
aa(lp111
I20
aI1
aF1.0
aF1.0
aI19
aI24
aF1.0
aI19
aI19
aI1
aI16
aI1
aI28
aI1
aI19
aI13
aI21
aa(lp112
I20
aI1
aF1.0
aF1.0
aI19
aI24
aF1.0
aI19
aI19
aI1
aI16
aI1
aI27
aI1
aI19
aI13
aI21
aa(lp113
I20
aI1
aF1.0
aF1.0
aI19
aI24
aF1.0
aI19
aI19
aI1
aI16
aI1
aI26
aI1
aI19
aI13
aI21
aa(lp114
I20
aI1
aF1.0
aF1.0
aI19
aI24
aF1.0
aI19
aI19
aI1
aI16
aI1
aI27
aI1
aI19
aI13
aI21
aa(lp115
I20
aI1
aF1.0
aF1.0
aI18
aI24
aF1.0
aI18
aI18
aI2
aI16
aI1
aI26
aI1
aI18
aI13
aI21
aa(lp116
I20
aI1
aF1.0
aF1.0
aI18
aI24
aF1.0
aI18
aI18
aI2
aI16
aI1
aI25
aI1
aI18
aI13
aI21
aa(lp117
I20
aI1
aF1.0
aF1.0
aI18
aI24
aF1.0
aI18
aI18
aI2
aI16
aI1
aI24
aI1
aI18
aI13
aI21
aa(lp118
I20
aI1
aF1.0
aF1.0
aI17
aI24
aF1.0
aI17
aI17
aI3
aI16
aI1
aI23
aI1
aI17
aI13
aI22
aa(lp119
I20
aI1
aF1.0
aF1.0
aI16
aI24
aF1.0
aI16
aI16
aI4
aI16
aI1
aI22
aI1
aI16
aI13
aI22
aa(lp120
I20
aI1
aF1.0
aF1.0
aI15
aI24
aF1.0
aI15
aI15
aI5
aI16
aI1
aI21
aI1
aI15
aI13
aI22
aa(lp121
I20
aI1
aF1.0
aF1.0
aI15
aI24
aF1.0
aI15
aI15
aI5
aI16
aI1
aI20
aI1
aI15
aI13
aI22
aa(lp122
I20
aI1
aF1.0
aF1.0
aI15
aI24
aF1.0
aI15
aI15
aI5
aI16
aI1
aI19
aI1
aI15
aI13
aI22
aa(lp123
I20
aI1
aF1.0
aF1.0
aI14
aI24
aF1.0
aI14
aI14
aI6
aI16
aI1
aI20
aI1
aI14
aI13
aI22
aa(lp124
I20
aI1
aF1.0
aF1.0
aI14
aI24
aF1.0
aI14
aI14
aI6
aI16
aI1
aI20
aI1
aI14
aI13
aI22
aa(lp125
I20
aI1
aF1.0
aF1.0
aI14
aI24
aF1.0
aI14
aI14
aI6
aI16
aI1
aI20
aI1
aI14
aI13
aI22
aa(lp126
I20
aI1
aF1.0
aF1.0
aI14
aI24
aF1.0
aI14
aI14
aI6
aI16
aI1
aI19
aI1
aI14
aI13
aI22
aa(lp127
I20
aI1
aF1.0
aF1.0
aI14
aI24
aF1.0
aI14
aI14
aI6
aI16
aI1
aI20
aI1
aI14
aI13
aI22
aa(lp128
I20
aI1
aF1.0
aF1.0
aI14
aI24
aF1.0
aI14
aI14
aI6
aI16
aI1
aI21
aI1
aI14
aI13
aI22
aa(lp129
I20
aI1
aF1.0
aF1.0
aI14
aI24
aF1.0
aI14
aI14
aI6
aI16
aI1
aI22
aI1
aI14
aI13
aI22
aa(lp130
I20
aI1
aF1.0
aF1.0
aI14
aI24
aF1.0
aI14
aI14
aI6
aI16
aI1
aI23
aI1
aI14
aI13
aI22
aa(lp131
I20
aI1
aF1.0
aF1.0
aI14
aI24
aF1.0
aI14
aI14
aI6
aI16
aI1
aI24
aI1
aI14
aI13
aI22
aa(lp132
I20
aI1
aF1.0
aF1.0
aI14
aI24
aF1.0
aI14
aI14
aI6
aI16
aI1
aI25
aI1
aI14
aI13
aI22
aa(lp133
I20
aI1
aF1.0
aF1.0
aI14
aI24
aF1.0
aI14
aI14
aI6
aI16
aI1
aI26
aI1
aI14
aI13
aI22
aa(lp134
I20
aI1
aF1.0
aF1.0
aI13
aI24
aF1.0
aI13
aI13
aI7
aI16
aI1
aI27
aI1
aI13
aI13
aI23
aa(lp135
I20
aI1
aF1.0
aF1.0
aI12
aI24
aF1.0
aI12
aI12
aI8
aI16
aI1
aI28
aI1
aI12
aI13
aI24
aa(lp136
I20
aI1
aF1.0
aF1.0
aI12
aI24
aF1.0
aI12
aI12
aI8
aI16
aI1
aI27
aI1
aI12
aI13
aI24
aa(lp137
I20
aI1
aF1.0
aF1.0
aI12
aI24
aF1.0
aI12
aI12
aI8
aI16
aI1
aI26
aI1
aI12
aI13
aI24
aa(lp138
I20
aI1
aF1.0
aF1.0
aI12
aI24
aF1.0
aI12
aI12
aI8
aI16
aI1
aI25
aI1
aI12
aI13
aI24
aa(lp139
I20
aI1
aF1.0
aF1.0
aI12
aI24
aF1.0
aI12
aI12
aI8
aI16
aI1
aI24
aI1
aI12
aI13
aI24
aa(lp140
I20
aI1
aF1.0
aF1.0
aI12
aI24
aF1.0
aI12
aI12
aI8
aI16
aI1
aI23
aI1
aI12
aI13
aI24
aa(lp141
I20
aI1
aF1.0
aF1.0
aI12
aI24
aF1.0
aI12
aI12
aI8
aI16
aI1
aI22
aI1
aI12
aI13
aI24
aa(lp142
I20
aI1
aF1.0
aF1.0
aI12
aI24
aF1.0
aI12
aI12
aI8
aI16
aI1
aI21
aI1
aI12
aI13
aI24
aa(lp143
I20
aI1
aF1.0
aF1.0
aI12
aI24
aF1.0
aI12
aI12
aI8
aI16
aI1
aI20
aI1
aI12
aI13
aI24
aa(lp144
I20
aI1
aF1.0
aF1.0
aI12
aI24
aF1.0
aI12
aI12
aI8
aI16
aI1
aI19
aI1
aI12
aI13
aI24
aa(lp145
I20
aI1
aF1.0
aF1.0
aI12
aI24
aF1.0
aI12
aI12
aI8
aI16
aI1
aI18
aI1
aI12
aI13
aI24
aa(lp146
I20
aI1
aF1.0
aF1.0
aI12
aI24
aF1.0
aI12
aI12
aI8
aI16
aI1
aI17
aI1
aI12
aI13
aI24
aa(lp147
I20
aI1
aF1.0
aF1.0
aI12
aI24
aF1.0
aI12
aI12
aI8
aI26
aI1
aI16
aI1
aI12
aI13
aI24
aa(lp148
I20
aI1
aF1.0
aF1.0
aI11
aI24
aF1.0
aI11
aI11
aI9
aI26
aI1
aI15
aI1
aI11
aI13
aI24
aa(lp149
I20
aI1
aF1.0
aF1.0
aI11
aI24
aF1.0
aI11
aI11
aI9
aI26
aI1
aI14
aI1
aI11
aI13
aI24
aa(lp150
I20
aI1
aF1.0
aF1.0
aI11
aI24
aF1.0
aI11
aI11
aI9
aI26
aI1
aI13
aI1
aI11
aI13
aI24
aa(lp151
I20
aI1
aF1.0
aF1.0
aI10
aI24
aF1.0
aI10
aI10
aI10
aI26
aI1
aI14
aI1
aI10
aI13
aI25
aa(lp152
I20
aI1
aF1.0
aF1.0
aI10
aI24
aF1.0
aI10
aI10
aI10
aI26
aI1
aI15
aI1
aI10
aI13
aI25
aa(lp153
I20
aI1
aF1.0
aF1.0
aI10
aI24
aF1.0
aI10
aI10
aI10
aI26
aI1
aI16
aI1
aI10
aI13
aI25
aa(lp154
I20
aI1
aF1.0
aF1.0
aI10
aI24
aF1.0
aI10
aI10
aI10
aI26
aI1
aI17
aI1
aI10
aI13
aI25
aa(lp155
I20
aI1
aF1.0
aF1.0
aI10
aI24
aF1.0
aI10
aI10
aI10
aI26
aI1
aI18
aI1
aI10
aI13
aI25
aa(lp156
I20
aI1
aF1.0
aF1.0
aI10
aI24
aF1.0
aI10
aI10
aI10
aI26
aI1
aI19
aI1
aI10
aI13
aI25
aa(lp157
I20
aI1
aF1.0
aF1.0
aI9
aI24
aF1.0
aI9
aI9
aI11
aI26
aI1
aI20
aI1
aI9
aI13
aI24
aa(lp158
I20
aI1
aF1.0
aF1.0
aI9
aI24
aF1.0
aI9
aI9
aI11
aI26
aI1
aI21
aI1
aI9
aI13
aI24
aa(lp159
I20
aI1
aF1.0
aF1.0
aI9
aI24
aF1.0
aI9
aI9
aI11
aI26
aI1
aI22
aI1
aI9
aI13
aI24
aa(lp160
I20
aI1
aF1.0
aF1.0
aI8
aI24
aF1.0
aI8
aI8
aI12
aI26
aI1
aI23
aI1
aI8
aI13
aI24
aa(lp161
I20
aI1
aF1.0
aF1.0
aI8
aI24
aF1.0
aI8
aI8
aI12
aI26
aI1
aI22
aI1
aI8
aI13
aI24
aa(lp162
I20
aI1
aF1.0
aF1.0
aI8
aI24
aF1.0
aI8
aI8
aI12
aI26
aI1
aI21
aI1
aI8
aI13
aI24
aa(lp163
I20
aI1
aF1.0
aF1.0
aI7
aI24
aF1.0
aI7
aI7
aI13
aI26
aI1
aI20
aI1
aI7
aI13
aI25
aa(lp164
I20
aI1
aF1.0
aF1.0
aI7
aI24
aF1.0
aI7
aI7
aI13
aI26
aI1
aI19
aI1
aI7
aI13
aI25
aa(lp165
I20
aI1
aF1.0
aF1.0
aI7
aI24
aF1.0
aI7
aI7
aI13
aI26
aI1
aI20
aI1
aI7
aI13
aI25
aa(lp166
I20
aI1
aF1.0
aF1.0
aI7
aI24
aF1.0
aI7
aI7
aI13
aI26
aI1
aI21
aI1
aI7
aI13
aI25
aa(lp167
I20
aI1
aF1.0
aF1.0
aI6
aI24
aF1.0
aI6
aI6
aI14
aI26
aI1
aI22
aI1
aI6
aI13
aI24
aa(lp168
I20
aI1
aF1.0
aF1.0
aI5
aI24
aF1.0
aI5
aI5
aI15
aI26
aI1
aI23
aI1
aI5
aI13
aI24
aa(lp169
I20
aI1
aF1.0
aF1.0
aI5
aI24
aF1.0
aI5
aI5
aI15
aI26
aI1
aI23
aI1
aI5
aI13
aI24
aa(lp170
I20
aI1
aF1.0
aF1.0
aI5
aI24
aF1.0
aI5
aI5
aI15
aI26
aI1
aI22
aI1
aI5
aI13
aI24
aa(lp171
I20
aI1
aF1.0
aF1.0
aI5
aI24
aF1.0
aI5
aI5
aI15
aI26
aI1
aI21
aI1
aI5
aI13
aI24
aa(lp172
I20
aI1
aF1.0
aF1.0
aI5
aI24
aF1.0
aI5
aI5
aI15
aI26
aI1
aI20
aI1
aI5
aI13
aI24
aa(lp173
I20
aI1
aF1.0
aF1.0
aI5
aI24
aF1.0
aI5
aI5
aI15
aI26
aI1
aI19
aI1
aI5
aI13
aI24
aa(lp174
I20
aI1
aF1.0
aF1.0
aI5
aI24
aF1.0
aI5
aI5
aI15
aI26
aI1
aI18
aI1
aI5
aI13
aI24
aa(lp175
I20
aI1
aF1.0
aF1.0
aI5
aI24
aF1.0
aI5
aI5
aI15
aI26
aI1
aI17
aI1
aI5
aI13
aI24
aa(lp176
I20
aI1
aF1.0
aF1.0
aI5
aI24
aF1.0
aI5
aI5
aI15
aI26
aI1
aI16
aI1
aI5
aI13
aI24
aa(lp177
I20
aI1
aF1.0
aF1.0
aI5
aI24
aF1.0
aI5
aI5
aI15
aI26
aI1
aI15
aI1
aI5
aI13
aI24
aa(lp178
I20
aI1
aF1.0
aF1.0
aI5
aI24
aF1.0
aI5
aI5
aI15
aI26
aI1
aI14
aI1
aI5
aI13
aI24
aa(lp179
I20
aI1
aF1.0
aF1.0
aI5
aI24
aF1.0
aI5
aI5
aI15
aI26
aI1
aI13
aI1
aI5
aI13
aI24
aa(lp180
I20
aI1
aF1.0
aF1.0
aI5
aI24
aF1.0
aI5
aI5
aI15
aI26
aI1
aI12
aI1
aI5
aI13
aI24
aa(lp181
I20
aI1
aF1.0
aF1.0
aI5
aI24
aF1.0
aI5
aI5
aI15
aI26
aI1
aI11
aI1
aI5
aI13
aI24
aa(lp182
I20
aI1
aF1.0
aF1.0
aI5
aI24
aF1.0
aI5
aI5
aI15
aI26
aI1
aI12
aI1
aI5
aI13
aI24
aa(lp183
I20
aI1
aF1.0
aF1.0
aI4
aI24
aF1.0
aI4
aI4
aI16
aI26
aI1
aI13
aI1
aI4
aI25
aI27
aa(lp184
I20
aI1
aF1.0
aF1.0
aI4
aI24
aF1.0
aI4
aI4
aI16
aI26
aI1
aI12
aI1
aI4
aI25
aI27
aa(lp185
I20
aI1
aF1.0
aF1.0
aI4
aI24
aF1.0
aI4
aI4
aI16
aI26
aI1
aI11
aI1
aI4
aI25
aI27
aa(lp186
I20
aI1
aF1.0
aF1.0
aI4
aI24
aF1.0
aI4
aI4
aI16
aI26
aI1
aI12
aI1
aI4
aI25
aI27
aa(lp187
I20
aI1
aF1.0
aF1.0
aI4
aI24
aF1.0
aI4
aI4
aI16
aI26
aI1
aI13
aI1
aI4
aI25
aI27
aa(lp188
I20
aI1
aF1.0
aF1.0
aI4
aI24
aF1.0
aI4
aI4
aI16
aI26
aI1
aI14
aI1
aI4
aI25
aI27
aa(lp189
I20
aI1
aF1.0
aF1.0
aI4
aI24
aF1.0
aI4
aI4
aI16
aI26
aI1
aI15
aI1
aI4
aI25
aI27
aa(lp190
I20
aI1
aF1.0
aF1.0
aI4
aI24
aF1.0
aI4
aI4
aI16
aI26
aI1
aI16
aI1
aI4
aI25
aI27
aa(lp191
I20
aI1
aF1.0
aF1.0
aI4
aI24
aF1.0
aI4
aI4
aI16
aI26
aI1
aI17
aI1
aI4
aI25
aI27
aa(lp192
I20
aI1
aF1.0
aF1.0
aI4
aI24
aF1.0
aI4
aI4
aI16
aI26
aI1
aI18
aI1
aI4
aI25
aI27
aa(lp193
I20
aI1
aF1.0
aF1.0
aI4
aI24
aF1.0
aI4
aI4
aI16
aI26
aI1
aI18
aI1
aI4
aI25
aI27
aa(lp194
I20
aI1
aF1.0
aF1.0
aI4
aI24
aF1.0
aI4
aI4
aI16
aI26
aI1
aI17
aI1
aI4
aI25
aI27
aa(lp195
I20
aI1
aF1.0
aF1.0
aI4
aI24
aF1.0
aI4
aI4
aI16
aI26
aI1
aI18
aI1
aI4
aI25
aI27
aa(lp196
I20
aI1
aF1.0
aF1.0
aI4
aI24
aF1.0
aI4
aI4
aI16
aI26
aI1
aI19
aI1
aI4
aI25
aI27
aa(lp197
I20
aI1
aF1.0
aF1.0
aI4
aI24
aF1.0
aI4
aI4
aI16
aI26
aI1
aI20
aI1
aI4
aI25
aI27
aa(lp198
I20
aI1
aF1.0
aF1.0
aI4
aI24
aF1.0
aI4
aI4
aI16
aI26
aI1
aI21
aI1
aI4
aI25
aI27
aa(lp199
I20
aI1
aF1.0
aF1.0
aI4
aI24
aF1.0
aI4
aI4
aI16
aI26
aI1
aI22
aI1
aI4
aI25
aI27
aa(lp200
I20
aI1
aF1.0
aF1.0
aI4
aI24
aF1.0
aI4
aI4
aI16
aI26
aI1
aI23
aI1
aI4
aI25
aI27
aa(lp201
I20
aI1
aF1.0
aF1.0
aI4
aI24
aF1.0
aI4
aI4
aI16
aI26
aI1
aI24
aI1
aI4
aI25
aI27
aa(lp202
I20
aI1
aF1.0
aF1.0
aI3
aI24
aF1.0
aI3
aI3
aI17
aI26
aI1
aI25
aI1
aI3
aI26
aI29
aa.